///////////////////////////////////////////////////////////////////////////////
//                                                                            /
// IAR C/C++ Compiler V8.10.3.10338/W32 for 8051        12/Sep/2018  15:25:30 /
// Copyright 2004-2011 IAR Systems AB.                                        /
//                                                                            /
//    Core               =  plain                                             /
//    Code model         =  banked                                            /
//    Data model         =  large                                             /
//    Calling convention =  xdata reentrant                                   /
//    Constant location  =  data_rom                                          /
//    Dptr setup         =  1,16                                              /
//    Source file        =  C:\Users\ASUS\Desktop\001\ZigBee\第5章            /
//                          zigbee协议栈应用与组网\7.温湿度传感器DHT11\ZStack /
//                          -2.5.1a\Projects\zstack\Samples\SampleApp\Source\ /
//                          SampleApp.c                                       /
//    Command line       =  -f "C:\Users\ASUS\Desktop\001\ZigBee\第5章        /
//                          zigbee协议栈应用与组网\7.温湿度传感器DHT11\ZStack /
//                          -2.5.1a\Projects\zstack\Samples\SampleApp\CC2530D /
//                          B\..\..\..\Tools\CC2530DB\f8wEndev.cfg"           /
//                          (-DCPU32MHZ -DROOT=__near_func                    /
//                          -DMAC_CFG_TX_DATA_MAX=3 -DMAC_CFG_TX_MAX=6        /
//                          -DMAC_CFG_RX_MAX=3) -f "C:\Users\ASUS\Desktop\001 /
//                          \ZigBee\第5章 zigbee协议栈应用与组网\7.温湿度传感 /
//                          器DHT11\ZStack-2.5.1a\Projects\zstack\Samples\Sam /
//                          pleApp\CC2530DB\..\..\..\Tools\CC2530DB\f8wConfig /
//                          .cfg" (-DZIGBEEPRO -DSECURE=0                     /
//                          -DZG_SECURE_DYNAMIC=0 -DREFLECTOR                 /
//                          -DDEFAULT_CHANLIST=0x00000800                     /
//                          -DZDAPP_CONFIG_PAN_ID=0xFFF1                      /
//                          -DNWK_START_DELAY=100 -DEXTENDED_JOINING_RANDOM_M /
//                          ASK=0x007F -DBEACON_REQUEST_DELAY=100             /
//                          -DBEACON_REQ_DELAY_MASK=0x00FF                    /
//                          -DLINK_STATUS_JITTER_MASK=0x007F                  /
//                          -DROUTE_EXPIRY_TIME=30 -DAPSC_ACK_WAIT_DURATION_P /
//                          OLLED=3000 -DNWK_INDIRECT_MSG_TIMEOUT=7           /
//                          -DMAX_RREQ_ENTRIES=8 -DAPSC_MAX_FRAME_RETRIES=3   /
//                          -DNWK_MAX_DATA_RETRIES=2                          /
//                          -DMAX_POLL_FAILURE_RETRIES=2 -DMAX_BCAST=9        /
//                          -DAPS_MAX_GROUPS=16 -DMAX_RTG_ENTRIES=40          /
//                          -DNWK_MAX_BINDING_ENTRIES=4                       /
//                          -DMAX_BINDING_CLUSTER_IDS=4                       /
//                          "-DDEFAULT_KEY={0x01, 0x03, 0x05, 0x07, 0x09,     /
//                          0x0B, 0x0D, 0x0F, 0x00, 0x02, 0x04, 0x06, 0x08,   /
//                          0x0A, 0x0C, 0x0D}" -DMAC_MAX_FRAME_SIZE=116       /
//                          -DZDNWKMGR_MIN_TRANSMISSIONS=20 "-DCONST=const    /
//                          __code" -DGENERIC=__generic                       /
//                          -DRFD_RCVC_ALWAYS_ON=FALSE -DPOLL_RATE=1000       /
//                          -DQUEUED_POLL_RATE=100 -DRESPONSE_POLL_RATE=100)  /
//                          -DREJOIN_POLL_RATE=440 "C:\Users\ASUS\Desktop\001 /
//                          \ZigBee\第5章 zigbee协议栈应用与组网\7.温湿度传感 /
//                          器DHT11\ZStack-2.5.1a\Projects\zstack\Samples\Sam /
//                          pleApp\Source\SampleApp.c" -D NWK_AUTO_POLL -D    /
//                          ZTOOL_P1 -D MT_TASK -D MT_SYS_FUNC -D             /
//                          MT_ZDO_FUNC -D LCD_SUPPORTED=DEBUG -lC            /
//                          "C:\Users\ASUS\Desktop\001\ZigBee\第5章           /
//                          zigbee协议栈应用与组网\7.温湿度传感器DHT11\ZStack /
//                          -2.5.1a\Projects\zstack\Samples\SampleApp\CC2530D /
//                          B\EndDeviceEB\List\" -lA                          /
//                          "C:\Users\ASUS\Desktop\001\ZigBee\第5章           /
//                          zigbee协议栈应用与组网\7.温湿度传感器DHT11\ZStack /
//                          -2.5.1a\Projects\zstack\Samples\SampleApp\CC2530D /
//                          B\EndDeviceEB\List\" --diag_suppress Pe001,Pa010  /
//                          -o "C:\Users\ASUS\Desktop\001\ZigBee\第5章        /
//                          zigbee协议栈应用与组网\7.温湿度传感器DHT11\ZStack /
//                          -2.5.1a\Projects\zstack\Samples\SampleApp\CC2530D /
//                          B\EndDeviceEB\Obj\" -e --no_code_motion --debug   /
//                          --core=plain --dptr=16,1 --data_model=large       /
//                          --code_model=banked --calling_convention=xdata_re /
//                          entrant --place_constants=data_rom                /
//                          --nr_virtual_regs 16 -I                           /
//                          "C:\Users\ASUS\Desktop\001\ZigBee\第5章           /
//                          zigbee协议栈应用与组网\7.温湿度传感器DHT11\ZStack /
//                          -2.5.1a\Projects\zstack\Samples\SampleApp\CC2530D /
//                          B\" -I "C:\Users\ASUS\Desktop\001\ZigBee\第5章    /
//                          zigbee协议栈应用与组网\7.温湿度传感器DHT11\ZStack /
//                          -2.5.1a\Projects\zstack\Samples\SampleApp\CC2530D /
//                          B\..\Source\" -I "C:\Users\ASUS\Desktop\001\ZigBe /
//                          e\第5章 zigbee协议栈应用与组网\7.温湿度传感器DHT1 /
//                          1\ZStack-2.5.1a\Projects\zstack\Samples\SampleApp /
//                          \CC2530DB\..\..\..\ZMain\TI2530DB\" -I            /
//                          "C:\Users\ASUS\Desktop\001\ZigBee\第5章           /
//                          zigbee协议栈应用与组网\7.温湿度传感器DHT11\ZStack /
//                          -2.5.1a\Projects\zstack\Samples\SampleApp\CC2530D /
//                          B\..\..\..\..\..\Components\hal\include\" -I      /
//                          "C:\Users\ASUS\Desktop\001\ZigBee\第5章           /
//                          zigbee协议栈应用与组网\7.温湿度传感器DHT11\ZStack /
//                          -2.5.1a\Projects\zstack\Samples\SampleApp\CC2530D /
//                          B\..\..\..\..\..\Components\hal\target\CC2530EB\" /
//                           -I "C:\Users\ASUS\Desktop\001\ZigBee\第5章       /
//                          zigbee协议栈应用与组网\7.温湿度传感器DHT11\ZStack /
//                          -2.5.1a\Projects\zstack\Samples\SampleApp\CC2530D /
//                          B\..\..\..\..\..\Components\mac\include\" -I      /
//                          "C:\Users\ASUS\Desktop\001\ZigBee\第5章           /
//                          zigbee协议栈应用与组网\7.温湿度传感器DHT11\ZStack /
//                          -2.5.1a\Projects\zstack\Samples\SampleApp\CC2530D /
//                          B\..\..\..\..\..\Components\mac\high_level\" -I   /
//                          "C:\Users\ASUS\Desktop\001\ZigBee\第5章           /
//                          zigbee协议栈应用与组网\7.温湿度传感器DHT11\ZStack /
//                          -2.5.1a\Projects\zstack\Samples\SampleApp\CC2530D /
//                          B\..\..\..\..\..\Components\mac\low_level\srf04\" /
//                           -I "C:\Users\ASUS\Desktop\001\ZigBee\第5章       /
//                          zigbee协议栈应用与组网\7.温湿度传感器DHT11\ZStack /
//                          -2.5.1a\Projects\zstack\Samples\SampleApp\CC2530D /
//                          B\..\..\..\..\..\Components\mac\low_level\srf04\s /
//                          ingle_chip\" -I "C:\Users\ASUS\Desktop\001\ZigBee /
//                          \第5章 zigbee协议栈应用与组网\7.温湿度传感器DHT11 /
//                          \ZStack-2.5.1a\Projects\zstack\Samples\SampleApp\ /
//                          CC2530DB\..\..\..\..\..\Components\mt\" -I        /
//                          "C:\Users\ASUS\Desktop\001\ZigBee\第5章           /
//                          zigbee协议栈应用与组网\7.温湿度传感器DHT11\ZStack /
//                          -2.5.1a\Projects\zstack\Samples\SampleApp\CC2530D /
//                          B\..\..\..\..\..\Components\osal\include\" -I     /
//                          "C:\Users\ASUS\Desktop\001\ZigBee\第5章           /
//                          zigbee协议栈应用与组网\7.温湿度传感器DHT11\ZStack /
//                          -2.5.1a\Projects\zstack\Samples\SampleApp\CC2530D /
//                          B\..\..\..\..\..\Components\services\saddr\" -I   /
//                          "C:\Users\ASUS\Desktop\001\ZigBee\第5章           /
//                          zigbee协议栈应用与组网\7.温湿度传感器DHT11\ZStack /
//                          -2.5.1a\Projects\zstack\Samples\SampleApp\CC2530D /
//                          B\..\..\..\..\..\Components\services\sdata\" -I   /
//                          "C:\Users\ASUS\Desktop\001\ZigBee\第5章           /
//                          zigbee协议栈应用与组网\7.温湿度传感器DHT11\ZStack /
//                          -2.5.1a\Projects\zstack\Samples\SampleApp\CC2530D /
//                          B\..\..\..\..\..\Components\stack\af\" -I         /
//                          "C:\Users\ASUS\Desktop\001\ZigBee\第5章           /
//                          zigbee协议栈应用与组网\7.温湿度传感器DHT11\ZStack /
//                          -2.5.1a\Projects\zstack\Samples\SampleApp\CC2530D /
//                          B\..\..\..\..\..\Components\stack\nwk\" -I        /
//                          "C:\Users\ASUS\Desktop\001\ZigBee\第5章           /
//                          zigbee协议栈应用与组网\7.温湿度传感器DHT11\ZStack /
//                          -2.5.1a\Projects\zstack\Samples\SampleApp\CC2530D /
//                          B\..\..\..\..\..\Components\stack\sapi\" -I       /
//                          "C:\Users\ASUS\Desktop\001\ZigBee\第5章           /
//                          zigbee协议栈应用与组网\7.温湿度传感器DHT11\ZStack /
//                          -2.5.1a\Projects\zstack\Samples\SampleApp\CC2530D /
//                          B\..\..\..\..\..\Components\stack\sec\" -I        /
//                          "C:\Users\ASUS\Desktop\001\ZigBee\第5章           /
//                          zigbee协议栈应用与组网\7.温湿度传感器DHT11\ZStack /
//                          -2.5.1a\Projects\zstack\Samples\SampleApp\CC2530D /
//                          B\..\..\..\..\..\Components\stack\sys\" -I        /
//                          "C:\Users\ASUS\Desktop\001\ZigBee\第5章           /
//                          zigbee协议栈应用与组网\7.温湿度传感器DHT11\ZStack /
//                          -2.5.1a\Projects\zstack\Samples\SampleApp\CC2530D /
//                          B\..\..\..\..\..\Components\stack\zdo\" -I        /
//                          "C:\Users\ASUS\Desktop\001\ZigBee\第5章           /
//                          zigbee协议栈应用与组网\7.温湿度传感器DHT11\ZStack /
//                          -2.5.1a\Projects\zstack\Samples\SampleApp\CC2530D /
//                          B\..\..\..\..\..\Components\zmac\" -I             /
//                          "C:\Users\ASUS\Desktop\001\ZigBee\第5章           /
//                          zigbee协议栈应用与组网\7.温湿度传感器DHT11\ZStack /
//                          -2.5.1a\Projects\zstack\Samples\SampleApp\CC2530D /
//                          B\..\..\..\..\..\Components\zmac\f8w\" -Ohz       /
//                          --require_prototypes                              /
//    List file          =  C:\Users\ASUS\Desktop\001\ZigBee\第5章            /
//                          zigbee协议栈应用与组网\7.温湿度传感器DHT11\ZStack /
//                          -2.5.1a\Projects\zstack\Samples\SampleApp\CC2530D /
//                          B\EndDeviceEB\List\SampleApp.s51                  /
//                                                                            /
//                                                                            /
///////////////////////////////////////////////////////////////////////////////

        NAME SampleApp

        RTMODEL "__SystemLibrary", "CLib"
        RTMODEL "__calling_convention", "xdata_reentrant"
        RTMODEL "__code_model", "banked"
        RTMODEL "__core", "plain"
        RTMODEL "__data_model", "large"
        RTMODEL "__dptr_size", "16"
        RTMODEL "__extended_stack", "disabled"
        RTMODEL "__location_for_constants", "data"
        RTMODEL "__number_of_dptrs", "1"
        RTMODEL "__rt_version", "1"

        RSEG DOVERLAY:DATA:NOROOT(0)
        RSEG IOVERLAY:IDATA:NOROOT(0)
        RSEG ISTACK:IDATA:NOROOT(0)
        RSEG PSTACK:XDATA:NOROOT(0)
        RSEG XSTACK:XDATA:NOROOT(0)

        EXTERN ?ALLOC_XSTACK8
        EXTERN ?BANKED_ENTER_XDATA
        EXTERN ?BANKED_LEAVE_XDATA
        EXTERN ?BDISPATCH
        EXTERN ?BRET
        EXTERN ?DEALLOC_XSTACK8
        EXTERN ?PUSH_XSTACK_I_ONE
        EXTERN ?PUSH_XSTACK_I_THREE
        EXTERN ?PUSH_XSTACK_I_TWO
        EXTERN ?US_DIV_MOD
        EXTERN ?US_SHR
        EXTERN ?US_SWITCH_DENSE
        EXTERN ?V0
        EXTERN ?XSP
        EXTERN ?XSTACK_DISP0_8
        EXTERN __INIT_XDATA_Z

        PUBLIC ??InitUart?relay
        FUNCTION ??InitUart?relay,0203H
        PUBLIC ??ReadGasData?relay
        FUNCTION ??ReadGasData?relay,0203H
        PUBLIC ??SampleApp_HandleKeys?relay
        FUNCTION ??SampleApp_HandleKeys?relay,0203H
        PUBLIC ??SampleApp_Init?relay
        FUNCTION ??SampleApp_Init?relay,0203H
        PUBLIC ??SampleApp_MessageMSGCB?relay
        FUNCTION ??SampleApp_MessageMSGCB?relay,0203H
        PUBLIC ??SampleApp_ProcessEvent?relay
        FUNCTION ??SampleApp_ProcessEvent?relay,0203H
        PUBLIC ??SampleApp_SendFlashMessage?relay
        FUNCTION ??SampleApp_SendFlashMessage?relay,0203H
        PUBLIC ??SampleApp_SendPeriodicMessage?relay
        FUNCTION ??SampleApp_SendPeriodicMessage?relay,0203H
        PUBLIC ??SampleApp_Send_P2P_Message?relay
        FUNCTION ??SampleApp_Send_P2P_Message?relay,0203H
        PUBLIC ??UartSendString?relay
        FUNCTION ??UartSendString?relay,0203H
        PUBWEAK ADCCFG
        PUBWEAK ADCCON1
        PUBWEAK ADCCON3
        PUBWEAK ADCH
        PUBWEAK ADCL
        PUBWEAK CLKCONCMD
        PUBWEAK CLKCONSTA
        PUBLIC GasData
        PUBLIC InitUart
        FUNCTION InitUart,0203H
        ARGFRAME XSTACK, 11, STACK
        ARGFRAME IOVERLAY, 0, STATIC
        ARGFRAME DOVERLAY, 0, STATIC
        PUBWEAK P0DIR
        PUBWEAK P0SEL
        PUBWEAK P1DIR
        PUBWEAK P1SEL
        PUBWEAK P2DIR
        PUBWEAK PERCFG
        PUBLIC ReadGasData
        FUNCTION ReadGasData,0203H
        ARGFRAME XSTACK, 24, STACK
        ARGFRAME IOVERLAY, 0, STATIC
        ARGFRAME DOVERLAY, 0, STATIC
        PUBLIC SampleAppFlashCounter
        PUBLIC SampleAppPeriodicCounter
        PUBLIC SampleApp_ClusterList
        PUBLIC SampleApp_Flash_DstAddr
        PUBLIC SampleApp_Group
        PUBLIC SampleApp_HandleKeys
        FUNCTION SampleApp_HandleKeys,021203H
        ARGFRAME XSTACK, 12, STACK
        ARGFRAME IOVERLAY, 0, STATIC
        ARGFRAME DOVERLAY, 0, STATIC
        LOCFRAME XSTACK, 10, STACK
        PUBLIC SampleApp_Init
        FUNCTION SampleApp_Init,021203H
        ARGFRAME XSTACK, 0, STACK
        LOCFRAME XSTACK, 14, STACK
        PUBLIC SampleApp_MessageMSGCB
        FUNCTION SampleApp_MessageMSGCB,0a1203H
        ARGFRAME XSTACK, 12, STACK
        ARGFRAME IOVERLAY, 0, STATIC
        ARGFRAME DOVERLAY, 0, STATIC
        LOCFRAME XSTACK, 10, STACK
        PUBLIC SampleApp_NwkState
        PUBLIC SampleApp_P2P_DstAddr
        PUBLIC SampleApp_Periodic_DstAddr
        PUBLIC SampleApp_ProcessEvent
        FUNCTION SampleApp_ProcessEvent,021203H
        ARGFRAME XSTACK, 0, STACK
        LOCFRAME XSTACK, 12, STACK
        PUBLIC SampleApp_SendFlashMessage
        FUNCTION SampleApp_SendFlashMessage,021203H
        ARGFRAME XSTACK, 10, STACK
        ARGFRAME IOVERLAY, 0, STATIC
        ARGFRAME DOVERLAY, 0, STATIC
        LOCFRAME ISTACK, 1, STACK
        LOCFRAME XSTACK, 22, STACK
        PUBLIC SampleApp_SendPeriodicMessage
        FUNCTION SampleApp_SendPeriodicMessage,021203H
        ARGFRAME XSTACK, 0, STACK
        LOCFRAME XSTACK, 19, STACK
        PUBLIC SampleApp_Send_P2P_Message
        FUNCTION SampleApp_Send_P2P_Message,021203H
        ARGFRAME XSTACK, 12, STACK
        ARGFRAME IOVERLAY, 0, STATIC
        ARGFRAME DOVERLAY, 0, STATIC
        LOCFRAME ISTACK, 1, STACK
        LOCFRAME XSTACK, 33, STACK
        PUBLIC SampleApp_SimpleDesc
        PUBLIC SampleApp_TaskID
        PUBLIC SampleApp_TransID
        PUBLIC SampleApp_epDesc
        PUBLIC TxBuf
        PUBWEAK U0BAUD
        PUBWEAK U0CSR
        PUBWEAK U0DBUF
        PUBWEAK U0GCR
        PUBLIC UartSendString
        FUNCTION UartSendString,0203H
        ARGFRAME XSTACK, 0, STACK
        LOCFRAME XSTACK, 9, STACK
        PUBWEAK _A_IRCON2
        PUBWEAK _A_P1
        
        CFI Names cfiNames0
        CFI StackFrame CFA_SP SP IDATA
        CFI StackFrame CFA_PSP16 PSP16 XDATA
        CFI StackFrame CFA_XSP16 XSP16 XDATA
        CFI StaticOverlayFrame CFA_IOVERLAY IOVERLAY
        CFI StaticOverlayFrame CFA_DOVERLAY DOVERLAY
        CFI Resource `PSW.CY`:1, `B.BR0`:1, `B.BR1`:1, `B.BR2`:1, `B.BR3`:1
        CFI Resource `B.BR4`:1, `B.BR5`:1, `B.BR6`:1, `B.BR7`:1, `VB.BR8`:1
        CFI Resource `VB.BR9`:1, `VB.BR10`:1, `VB.BR11`:1, `VB.BR12`:1
        CFI Resource `VB.BR13`:1, `VB.BR14`:1, `VB.BR15`:1, VB:8, B:8, A:8
        CFI Resource PSW:8, DPL0:8, DPH0:8, R0:8, R1:8, R2:8, R3:8, R4:8, R5:8
        CFI Resource R6:8, R7:8, V0:8, V1:8, V2:8, V3:8, V4:8, V5:8, V6:8, V7:8
        CFI Resource V8:8, V9:8, V10:8, V11:8, V12:8, V13:8, V14:8, V15:8, SP:8
        CFI Resource PSPH:8, PSPL:8, PSP16:16, XSPH:8, XSPL:8, XSP16:16
        CFI VirtualResource ?RET:24
        CFI Resource ?BRET_EXT:8
        CFI VirtualResource ?RET_HIGH:8, ?RET_LOW:8
        CFI ResourceParts PSP16 PSPH, PSPL
        CFI ResourceParts XSP16 XSPH, XSPL
        CFI ResourceParts ?RET ?BRET_EXT, ?RET_HIGH, ?RET_LOW
        CFI EndNames cfiNames0
        
        CFI Common cfiCommon0 Using cfiNames0
        CFI CodeAlign 1
        CFI DataAlign -1
        CFI ReturnAddress ?RET CODE
        CFI CFA_DOVERLAY Used
        CFI CFA_IOVERLAY Used
        CFI CFA_SP SP+-3
        CFI CFA_PSP16 PSP16+0
        CFI CFA_XSP16 XSP16+0
        CFI `PSW.CY` SameValue
        CFI `B.BR0` SameValue
        CFI `B.BR1` SameValue
        CFI `B.BR2` SameValue
        CFI `B.BR3` SameValue
        CFI `B.BR4` SameValue
        CFI `B.BR5` SameValue
        CFI `B.BR6` SameValue
        CFI `B.BR7` SameValue
        CFI `VB.BR8` SameValue
        CFI `VB.BR9` SameValue
        CFI `VB.BR10` SameValue
        CFI `VB.BR11` SameValue
        CFI `VB.BR12` SameValue
        CFI `VB.BR13` SameValue
        CFI `VB.BR14` SameValue
        CFI `VB.BR15` SameValue
        CFI VB SameValue
        CFI B Undefined
        CFI A Undefined
        CFI PSW SameValue
        CFI DPL0 SameValue
        CFI DPH0 SameValue
        CFI R0 Undefined
        CFI R1 Undefined
        CFI R2 Undefined
        CFI R3 Undefined
        CFI R4 Undefined
        CFI R5 Undefined
        CFI R6 SameValue
        CFI R7 SameValue
        CFI V0 SameValue
        CFI V1 SameValue
        CFI V2 SameValue
        CFI V3 SameValue
        CFI V4 SameValue
        CFI V5 SameValue
        CFI V6 SameValue
        CFI V7 SameValue
        CFI V8 SameValue
        CFI V9 SameValue
        CFI V10 SameValue
        CFI V11 SameValue
        CFI V12 SameValue
        CFI V13 SameValue
        CFI V14 SameValue
        CFI V15 SameValue
        CFI PSPH Undefined
        CFI PSPL Undefined
        CFI XSPH Undefined
        CFI XSPL Undefined
        CFI ?RET Concat
        CFI ?BRET_EXT Frame(CFA_SP, 3)
        CFI ?RET_HIGH Frame(CFA_SP, 2)
        CFI ?RET_LOW Frame(CFA_SP, 1)
        CFI EndCommon cfiCommon0
        
        
        CFI Common cfiCommon1 Using cfiNames0
        CFI CodeAlign 1
        CFI DataAlign -1
        CFI ReturnAddress ?RET CODE
        CFI CFA_DOVERLAY Used
        CFI CFA_IOVERLAY Used
        CFI CFA_SP SP+-2
        CFI CFA_PSP16 PSP16+0
        CFI CFA_XSP16 XSP16+0
        CFI `PSW.CY` SameValue
        CFI `B.BR0` SameValue
        CFI `B.BR1` SameValue
        CFI `B.BR2` SameValue
        CFI `B.BR3` SameValue
        CFI `B.BR4` SameValue
        CFI `B.BR5` SameValue
        CFI `B.BR6` SameValue
        CFI `B.BR7` SameValue
        CFI `VB.BR8` SameValue
        CFI `VB.BR9` SameValue
        CFI `VB.BR10` SameValue
        CFI `VB.BR11` SameValue
        CFI `VB.BR12` SameValue
        CFI `VB.BR13` SameValue
        CFI `VB.BR14` SameValue
        CFI `VB.BR15` SameValue
        CFI VB SameValue
        CFI B SameValue
        CFI A SameValue
        CFI PSW SameValue
        CFI DPL0 SameValue
        CFI DPH0 SameValue
        CFI R0 SameValue
        CFI R1 SameValue
        CFI R2 SameValue
        CFI R3 SameValue
        CFI R4 SameValue
        CFI R5 SameValue
        CFI R6 SameValue
        CFI R7 SameValue
        CFI V0 SameValue
        CFI V1 SameValue
        CFI V2 SameValue
        CFI V3 SameValue
        CFI V4 SameValue
        CFI V5 SameValue
        CFI V6 SameValue
        CFI V7 SameValue
        CFI V8 SameValue
        CFI V9 SameValue
        CFI V10 SameValue
        CFI V11 SameValue
        CFI V12 SameValue
        CFI V13 SameValue
        CFI V14 SameValue
        CFI V15 SameValue
        CFI PSPH Undefined
        CFI PSPL Undefined
        CFI XSPH Undefined
        CFI XSPL Undefined
        CFI ?RET Concat
        CFI ?BRET_EXT SameValue
        CFI ?RET_HIGH Frame(CFA_SP, 2)
        CFI ?RET_LOW Frame(CFA_SP, 1)
        CFI EndCommon cfiCommon1
        
MT_UartInit         SYMBOL "MT_UartInit"
MT_UartRegisterTaskID SYMBOL "MT_UartRegisterTaskID"
afRegister          SYMBOL "afRegister"
RegisterForKeys     SYMBOL "RegisterForKeys"
osal_memcpy         SYMBOL "osal_memcpy"
aps_AddGroup        SYMBOL "aps_AddGroup"
HalLcdWriteString   SYMBOL "HalLcdWriteString"
osal_msg_receive    SYMBOL "osal_msg_receive"
osal_start_timerEx  SYMBOL "osal_start_timerEx"
osal_msg_deallocate SYMBOL "osal_msg_deallocate"
osal_rand           SYMBOL "osal_rand"
aps_FindGroup       SYMBOL "aps_FindGroup"
aps_RemoveGroup     SYMBOL "aps_RemoveGroup"
HalUARTWrite        SYMBOL "HalUARTWrite"
HalLedBlink         SYMBOL "HalLedBlink"
AF_DataRequest      SYMBOL "AF_DataRequest"
DHT11               SYMBOL "DHT11"
LCD_P16x16Ch        SYMBOL "LCD_P16x16Ch"
LCD_P8x16Str        SYMBOL "LCD_P8x16Str"
??AF_DataRequest?relay SYMBOL "?relay", AF_DataRequest
??DHT11?relay       SYMBOL "?relay", DHT11
??HalLcdWriteString?relay SYMBOL "?relay", HalLcdWriteString
??HalLedBlink?relay SYMBOL "?relay", HalLedBlink
??HalUARTWrite?relay SYMBOL "?relay", HalUARTWrite
??LCD_P16x16Ch?relay SYMBOL "?relay", LCD_P16x16Ch
??LCD_P8x16Str?relay SYMBOL "?relay", LCD_P8x16Str
??MT_UartInit?relay SYMBOL "?relay", MT_UartInit
??MT_UartRegisterTaskID?relay SYMBOL "?relay", MT_UartRegisterTaskID
??RegisterForKeys?relay SYMBOL "?relay", RegisterForKeys
??afRegister?relay  SYMBOL "?relay", afRegister
??aps_AddGroup?relay SYMBOL "?relay", aps_AddGroup
??aps_FindGroup?relay SYMBOL "?relay", aps_FindGroup
??aps_RemoveGroup?relay SYMBOL "?relay", aps_RemoveGroup
??osal_memcpy?relay SYMBOL "?relay", osal_memcpy
??osal_msg_deallocate?relay SYMBOL "?relay", osal_msg_deallocate
??osal_msg_receive?relay SYMBOL "?relay", osal_msg_receive
??osal_rand?relay   SYMBOL "?relay", osal_rand
??osal_start_timerEx?relay SYMBOL "?relay", osal_start_timerEx
InitUart            SYMBOL "InitUart"
??InitUart?relay    SYMBOL "?relay", InitUart
ReadGasData         SYMBOL "ReadGasData"
??ReadGasData?relay SYMBOL "?relay", ReadGasData
SampleApp_HandleKeys SYMBOL "SampleApp_HandleKeys"
??SampleApp_HandleKeys?relay SYMBOL "?relay", SampleApp_HandleKeys
SampleApp_Init      SYMBOL "SampleApp_Init"
??SampleApp_Init?relay SYMBOL "?relay", SampleApp_Init
SampleApp_MessageMSGCB SYMBOL "SampleApp_MessageMSGCB"
??SampleApp_MessageMSGCB?relay SYMBOL "?relay", SampleApp_MessageMSGCB
SampleApp_ProcessEvent SYMBOL "SampleApp_ProcessEvent"
??SampleApp_ProcessEvent?relay SYMBOL "?relay", SampleApp_ProcessEvent
SampleApp_SendFlashMessage SYMBOL "SampleApp_SendFlashMessage"
??SampleApp_SendFlashMessage?relay SYMBOL "?relay", SampleApp_SendFlashMessage
SampleApp_SendPeriodicMessage SYMBOL "SampleApp_SendPeriodicMessage"
??SampleApp_SendPeriodicMessage?relay SYMBOL "?relay", SampleApp_SendPeriodicMessage
SampleApp_Send_P2P_Message SYMBOL "SampleApp_Send_P2P_Message"
??SampleApp_Send_P2P_Message?relay SYMBOL "?relay", SampleApp_Send_P2P_Message
UartSendString      SYMBOL "UartSendString"
??UartSendString?relay SYMBOL "?relay", UartSendString

        EXTERN MT_UartInit
        FUNCTION MT_UartInit,0202H
        ARGFRAME ISTACK, 0, STACK
        ARGFRAME PSTACK, 0, STACK
        ARGFRAME XSTACK, 11, STACK
        ARGFRAME IOVERLAY, 0, STATIC
        ARGFRAME DOVERLAY, 0, STATIC
        EXTERN MT_UartRegisterTaskID
        FUNCTION MT_UartRegisterTaskID,0202H
        ARGFRAME ISTACK, 0, STACK
        ARGFRAME PSTACK, 0, STACK
        ARGFRAME XSTACK, 11, STACK
        ARGFRAME IOVERLAY, 0, STATIC
        ARGFRAME DOVERLAY, 0, STATIC
        EXTERN afRegister
        FUNCTION afRegister,0202H
        ARGFRAME ISTACK, 0, STACK
        ARGFRAME PSTACK, 0, STACK
        ARGFRAME XSTACK, 11, STACK
        ARGFRAME IOVERLAY, 0, STATIC
        ARGFRAME DOVERLAY, 0, STATIC
        EXTERN RegisterForKeys
        FUNCTION RegisterForKeys,0202H
        ARGFRAME ISTACK, 0, STACK
        ARGFRAME PSTACK, 0, STACK
        ARGFRAME XSTACK, 11, STACK
        ARGFRAME IOVERLAY, 0, STATIC
        ARGFRAME DOVERLAY, 0, STATIC
        EXTERN osal_memcpy
        FUNCTION osal_memcpy,0202H
        ARGFRAME ISTACK, 0, STACK
        ARGFRAME PSTACK, 0, STACK
        ARGFRAME XSTACK, 27, STACK
        ARGFRAME IOVERLAY, 0, STATIC
        ARGFRAME DOVERLAY, 0, STATIC
        EXTERN aps_AddGroup
        FUNCTION aps_AddGroup,0202H
        ARGFRAME ISTACK, 0, STACK
        ARGFRAME PSTACK, 0, STACK
        ARGFRAME XSTACK, 11, STACK
        ARGFRAME IOVERLAY, 0, STATIC
        ARGFRAME DOVERLAY, 0, STATIC
        EXTERN HalLcdWriteString
        FUNCTION HalLcdWriteString,0202H
        ARGFRAME ISTACK, 0, STACK
        ARGFRAME PSTACK, 0, STACK
        ARGFRAME XSTACK, 11, STACK
        ARGFRAME IOVERLAY, 0, STATIC
        ARGFRAME DOVERLAY, 0, STATIC
        EXTERN osal_msg_receive
        FUNCTION osal_msg_receive,0202H
        ARGFRAME ISTACK, 0, STACK
        ARGFRAME PSTACK, 0, STACK
        ARGFRAME XSTACK, 12, STACK
        ARGFRAME IOVERLAY, 0, STATIC
        ARGFRAME DOVERLAY, 0, STATIC
        EXTERN osal_start_timerEx
        FUNCTION osal_start_timerEx,0202H
        ARGFRAME ISTACK, 0, STACK
        ARGFRAME PSTACK, 0, STACK
        ARGFRAME XSTACK, 12, STACK
        ARGFRAME IOVERLAY, 0, STATIC
        ARGFRAME DOVERLAY, 0, STATIC
        EXTERN osal_msg_deallocate
        FUNCTION osal_msg_deallocate,0202H
        ARGFRAME ISTACK, 0, STACK
        ARGFRAME PSTACK, 0, STACK
        ARGFRAME XSTACK, 12, STACK
        ARGFRAME IOVERLAY, 0, STATIC
        ARGFRAME DOVERLAY, 0, STATIC
        EXTERN osal_rand
        FUNCTION osal_rand,0202H
        ARGFRAME ISTACK, 0, STACK
        ARGFRAME PSTACK, 0, STACK
        ARGFRAME XSTACK, 12, STACK
        ARGFRAME IOVERLAY, 0, STATIC
        ARGFRAME DOVERLAY, 0, STATIC
        EXTERN aps_FindGroup
        FUNCTION aps_FindGroup,0202H
        ARGFRAME ISTACK, 0, STACK
        ARGFRAME PSTACK, 0, STACK
        ARGFRAME XSTACK, 10, STACK
        ARGFRAME IOVERLAY, 0, STATIC
        ARGFRAME DOVERLAY, 0, STATIC
        EXTERN aps_RemoveGroup
        FUNCTION aps_RemoveGroup,0202H
        ARGFRAME ISTACK, 0, STACK
        ARGFRAME PSTACK, 0, STACK
        ARGFRAME XSTACK, 10, STACK
        ARGFRAME IOVERLAY, 0, STATIC
        ARGFRAME DOVERLAY, 0, STATIC
        EXTERN HalUARTWrite
        FUNCTION HalUARTWrite,0202H
        ARGFRAME ISTACK, 0, STACK
        ARGFRAME PSTACK, 0, STACK
        ARGFRAME XSTACK, 24, STACK
        ARGFRAME IOVERLAY, 0, STATIC
        ARGFRAME DOVERLAY, 0, STATIC
        EXTERN HalLedBlink
        FUNCTION HalLedBlink,0202H
        ARGFRAME ISTACK, 0, STACK
        ARGFRAME PSTACK, 0, STACK
        ARGFRAME XSTACK, 10, STACK
        ARGFRAME IOVERLAY, 0, STATIC
        ARGFRAME DOVERLAY, 0, STATIC
        EXTERN AF_DataRequest
        FUNCTION AF_DataRequest,0202H
        ARGFRAME ISTACK, 0, STACK
        ARGFRAME PSTACK, 0, STACK
        ARGFRAME XSTACK, 33, STACK
        ARGFRAME IOVERLAY, 0, STATIC
        ARGFRAME DOVERLAY, 0, STATIC
        EXTERN DHT11
        FUNCTION DHT11,0202H
        ARGFRAME ISTACK, 0, STACK
        ARGFRAME PSTACK, 0, STACK
        ARGFRAME XSTACK, 24, STACK
        ARGFRAME IOVERLAY, 0, STATIC
        ARGFRAME DOVERLAY, 0, STATIC
        EXTERN LCD_P16x16Ch
        FUNCTION LCD_P16x16Ch,0202H
        ARGFRAME ISTACK, 0, STACK
        ARGFRAME PSTACK, 0, STACK
        ARGFRAME XSTACK, 24, STACK
        ARGFRAME IOVERLAY, 0, STATIC
        ARGFRAME DOVERLAY, 0, STATIC
        EXTERN LCD_P8x16Str
        FUNCTION LCD_P8x16Str,0202H
        ARGFRAME ISTACK, 0, STACK
        ARGFRAME PSTACK, 0, STACK
        ARGFRAME XSTACK, 24, STACK
        ARGFRAME IOVERLAY, 0, STATIC
        ARGFRAME DOVERLAY, 0, STATIC
        EXTERN ??AF_DataRequest?relay
        FUNCTION ??AF_DataRequest?relay,00H
        EXTERN ??DHT11?relay
        FUNCTION ??DHT11?relay,00H
        EXTERN ??HalLcdWriteString?relay
        FUNCTION ??HalLcdWriteString?relay,00H
        EXTERN ??HalLedBlink?relay
        FUNCTION ??HalLedBlink?relay,00H
        EXTERN ??HalUARTWrite?relay
        FUNCTION ??HalUARTWrite?relay,00H
        EXTERN ??LCD_P16x16Ch?relay
        FUNCTION ??LCD_P16x16Ch?relay,00H
        EXTERN ??LCD_P8x16Str?relay
        FUNCTION ??LCD_P8x16Str?relay,00H
        EXTERN ??MT_UartInit?relay
        FUNCTION ??MT_UartInit?relay,00H
        EXTERN ??MT_UartRegisterTaskID?relay
        FUNCTION ??MT_UartRegisterTaskID?relay,00H
        EXTERN ??RegisterForKeys?relay
        FUNCTION ??RegisterForKeys?relay,00H
        EXTERN ??afRegister?relay
        FUNCTION ??afRegister?relay,00H
        EXTERN ??aps_AddGroup?relay
        FUNCTION ??aps_AddGroup?relay,00H
        EXTERN ??aps_FindGroup?relay
        FUNCTION ??aps_FindGroup?relay,00H
        EXTERN ??aps_RemoveGroup?relay
        FUNCTION ??aps_RemoveGroup?relay,00H
        EXTERN ??osal_memcpy?relay
        FUNCTION ??osal_memcpy?relay,00H
        EXTERN ??osal_msg_deallocate?relay
        FUNCTION ??osal_msg_deallocate?relay,00H
        EXTERN ??osal_msg_receive?relay
        FUNCTION ??osal_msg_receive?relay,00H
        EXTERN ??osal_rand?relay
        FUNCTION ??osal_rand?relay,00H
        EXTERN ??osal_start_timerEx?relay
        FUNCTION ??osal_start_timerEx?relay,00H
        EXTERN shidu_ge
        EXTERN shidu_shi
        EXTERN wendu_ge
        EXTERN wendu_shi

// C:\Users\ASUS\Desktop\001\ZigBee\第5章 zigbee协议栈应用与组网\7.温湿度传感器DHT11\ZStack-2.5.1a\Projects\zstack\Samples\SampleApp\Source\SampleApp.c
//    1 /**************************************************************************************************
//    2   Filename:       SampleApp.c
//    3   Revised:        $Date: 2009-03-18 15:56:27 -0700 (Wed, 18 Mar 2009) $
//    4   Revision:       $Revision: 19453 $
//    5 
//    6   Description:    Sample Application (no Profile).
//    7 
//    8 
//    9   Copyright 2007 Texas Instruments Incorporated. All rights reserved.
//   10 
//   11   IMPORTANT: Your use of this Software is limited to those specific rights
//   12   granted under the terms of a software license agreement between the user
//   13   who downloaded the software, his/her employer (which must be your employer)
//   14   and Texas Instruments Incorporated (the "License").  You may not use this
//   15   Software unless you agree to abide by the terms of the License. The License
//   16   limits your use, and you acknowledge, that the Software may not be modified,
//   17   copied or distributed unless embedded on a Texas Instruments microcontroller
//   18   or used solely and exclusively in conjunction with a Texas Instruments radio
//   19   frequency transceiver, which is integrated into your product.  Other than for
//   20   the foregoing purpose, you may not use, reproduce, copy, prepare derivative
//   21   works of, modify, distribute, perform, display or sell this Software and/or
//   22   its documentation for any purpose.
//   23 
//   24   YOU FURTHER ACKNOWLEDGE AND AGREE THAT THE SOFTWARE AND DOCUMENTATION ARE
//   25   PROVIDED AS IS?WITHOUT WARRANTY OF ANY KIND, EITHER EXPRESS OR IMPLIED,
//   26   INCLUDING WITHOUT LIMITATION, ANY WARRANTY OF MERCHANTABILITY, TITLE,
//   27   NON-INFRINGEMENT AND FITNESS FOR A PARTICULAR PURPOSE. IN NO EVENT SHALL
//   28   TEXAS INSTRUMENTS OR ITS LICENSORS BE LIABLE OR OBLIGATED UNDER CONTRACT,
//   29   NEGLIGENCE, STRICT LIABILITY, CONTRIBUTION, BREACH OF WARRANTY, OR OTHER
//   30   LEGAL EQUITABLE THEORY ANY DIRECT OR INDIRECT DAMAGES OR EXPENSES
//   31   INCLUDING BUT NOT LIMITED TO ANY INCIDENTAL, SPECIAL, INDIRECT, PUNITIVE
//   32   OR CONSEQUENTIAL DAMAGES, LOST PROFITS OR LOST DATA, COST OF PROCUREMENT
//   33   OF SUBSTITUTE GOODS, TECHNOLOGY, SERVICES, OR ANY CLAIMS BY THIRD PARTIES
//   34   (INCLUDING BUT NOT LIMITED TO ANY DEFENSE THEREOF), OR OTHER SIMILAR COSTS.
//   35 
//   36   Should you have any questions regarding your right to use this Software,
//   37   contact Texas Instruments Incorporated at www.TI.com.
//   38 **************************************************************************************************/
//   39 
//   40 /*********************************************************************
//   41   This application isn't intended to do anything useful, it is
//   42   intended to be a simple example of an application's structure.
//   43 
//   44   This application sends it's messages either as broadcast or
//   45   broadcast filtered group messages.  The other (more normal)
//   46   message addressing is unicast.  Most of the other sample
//   47   applications are written to support the unicast message model.
//   48 
//   49   Key control:
//   50     SW1:  Sends a flash command to all devices in Group 1.
//   51     SW2:  Adds/Removes (toggles) this device in and out
//   52           of Group 1.  This will enable and disable the
//   53           reception of the flash command.
//   54 *********************************************************************/
//   55 
//   56 /*********************************************************************
//   57  * INCLUDES
//   58  */
//   59 #include "OSAL.h"
//   60 #include "ZGlobals.h"
//   61 #include "AF.h"
//   62 #include "aps_groups.h"
//   63 #include "ZDApp.h"
//   64 
//   65 #include "SampleApp.h"
//   66 #include "SampleAppHw.h"
//   67 
//   68 #include "OnBoard.h"

        ASEGN SFR_AN:DATA:NOROOT,086H
// unsigned char volatile __sfr U0CSR
U0CSR:
        DATA8
        DS 1

        ASEGN SFR_AN:DATA:NOROOT,090H
// union <unnamed> volatile __sfr _A_P1
_A_P1:
        DATA8
        DS 1

        ASEGN SFR_AN:DATA:NOROOT,09eH
// unsigned char volatile __sfr CLKCONSTA
CLKCONSTA:
        DATA8
        DS 1

        ASEGN SFR_AN:DATA:NOROOT,0b4H
// unsigned char volatile __sfr ADCCON1
ADCCON1:
        DATA8
        DS 1

        ASEGN SFR_AN:DATA:NOROOT,0b6H
// unsigned char volatile __sfr ADCCON3
ADCCON3:
        DATA8
        DS 1

        ASEGN SFR_AN:DATA:NOROOT,0baH
// unsigned char volatile __sfr ADCL
ADCL:
        DATA8
        DS 1

        ASEGN SFR_AN:DATA:NOROOT,0bbH
// unsigned char volatile __sfr ADCH
ADCH:
        DATA8
        DS 1

        ASEGN SFR_AN:DATA:NOROOT,0c1H
// unsigned char volatile __sfr U0DBUF
U0DBUF:
        DATA8
        DS 1

        ASEGN SFR_AN:DATA:NOROOT,0c2H
// unsigned char volatile __sfr U0BAUD
U0BAUD:
        DATA8
        DS 1

        ASEGN SFR_AN:DATA:NOROOT,0c5H
// unsigned char volatile __sfr U0GCR
U0GCR:
        DATA8
        DS 1

        ASEGN SFR_AN:DATA:NOROOT,0c6H
// unsigned char volatile __sfr CLKCONCMD
CLKCONCMD:
        DATA8
        DS 1

        ASEGN SFR_AN:DATA:NOROOT,0e8H
// union <unnamed> volatile __sfr _A_IRCON2
_A_IRCON2:
        DATA8
        DS 1

        ASEGN SFR_AN:DATA:NOROOT,0f1H
// unsigned char volatile __sfr PERCFG
PERCFG:
        DATA8
        DS 1

        ASEGN SFR_AN:DATA:NOROOT,0f2H
// unsigned char volatile __sfr ADCCFG
ADCCFG:
        DATA8
        DS 1

        ASEGN SFR_AN:DATA:NOROOT,0f3H
// unsigned char volatile __sfr P0SEL
P0SEL:
        DATA8
        DS 1

        ASEGN SFR_AN:DATA:NOROOT,0f4H
// unsigned char volatile __sfr P1SEL
P1SEL:
        DATA8
        DS 1

        ASEGN SFR_AN:DATA:NOROOT,0fdH
// unsigned char volatile __sfr P0DIR
P0DIR:
        DATA8
        DS 1

        ASEGN SFR_AN:DATA:NOROOT,0feH
// unsigned char volatile __sfr P1DIR
P1DIR:
        DATA8
        DS 1

        ASEGN SFR_AN:DATA:NOROOT,0ffH
// unsigned char volatile __sfr P2DIR
P2DIR:
        DATA8
        DS 1
//   69 
//   70 /* HAL */
//   71 #include "hal_lcd.h"
//   72 #include "hal_led.h"
//   73 #include "hal_key.h"
//   74 #include "MT_UART.h"
//   75 #include "MT_APP.h"
//   76 #include "MT.h"
//   77 #include "DHT11.h"
//   78 
//   79 #include "ioCC2530.h"
//   80 #include "string.h"
//   81 
//   82 #define ARRAY_SIZE(arr) (sizeof(arr) / sizeof(arr)[0])
//   83 #define DATA_PIN P0_6           //定义P0.6口为传感器的输入端
//   84 
//   85 #define FMQ_PIN P0_4
//   86 //#define LEDW_PIN P1_1
//   87 //#define LEDQ_PIN P1_0
//   88 
//   89 //typedef unsigned char uchar;
//   90 typedef unsigned int uint;
//   91 typedef signed short int16;
//   92 typedef unsigned short uint16;
//   93 

        RSEG XDATA_Z:XDATA:NOROOT(0)
        DATA8
//   94 char TxBuf[5];
TxBuf:
        DS 5
        REQUIRE __INIT_XDATA_Z

        RSEG XDATA_Z:XDATA:NOROOT(0)
        DATA16
//   95 uint16 GasData;
GasData:
        DS 2
        REQUIRE __INIT_XDATA_Z
//   96 
//   97 
//   98 
//   99 /*********************************************************************
//  100  * MACROS
//  101  */
//  102 
//  103 /*********************************************************************
//  104  * CONSTANTS
//  105  */
//  106 
//  107 /*********************************************************************
//  108  * TYPEDEFS
//  109  */
//  110 
//  111 /*********************************************************************
//  112  * GLOBAL VARIABLES
//  113  */
//  114 
//  115 // This list should be filled with Application specific Cluster IDs.

        RSEG XDATA_ROM_C:CONST:REORDER:NOROOT(0)
        DATA8
//  116 const cId_t SampleApp_ClusterList[SAMPLEAPP_MAX_CLUSTERS] =
SampleApp_ClusterList:
        DATA16
        DW 1
        DW 2
        DW 3
//  117 {
//  118   SAMPLEAPP_PERIODIC_CLUSTERID,
//  119   SAMPLEAPP_FLASH_CLUSTERID,
//  120   SAMPLEAPP_P2P_CLUSTERID
//  121 };
//  122 

        RSEG XDATA_ROM_C:CONST:REORDER:NOROOT(0)
        DATA8
//  123 const SimpleDescriptionFormat_t SampleApp_SimpleDesc =
SampleApp_SimpleDesc:
        DB 20
        DATA16
        DW 3848
        DW 1
        DATA8
        DB 0
        DB 3
        DATA16
        DW SampleApp_ClusterList
        DATA8
        DB 3
        DATA16
        DW SampleApp_ClusterList
//  124 {
//  125   SAMPLEAPP_ENDPOINT,              //  int Endpoint;
//  126   SAMPLEAPP_PROFID,                //  uint16 AppProfId[2];
//  127   SAMPLEAPP_DEVICEID,              //  uint16 AppDeviceId[2];
//  128   SAMPLEAPP_DEVICE_VERSION,        //  int   AppDevVer:4;
//  129   SAMPLEAPP_FLAGS,                 //  int   AppFlags:4;
//  130   SAMPLEAPP_MAX_CLUSTERS,          //  uint8  AppNumInClusters;
//  131   (cId_t *)SampleApp_ClusterList,  //  uint8 *pAppInClusterList;
//  132   SAMPLEAPP_MAX_CLUSTERS,          //  uint8  AppNumInClusters;
//  133   (cId_t *)SampleApp_ClusterList   //  uint8 *pAppInClusterList;
//  134 };
//  135 
//  136 // This is the Endpoint/Interface description.  It is defined here, but
//  137 // filled-in in SampleApp_Init().  Another way to go would be to fill
//  138 // in the structure here and make it a "const" (in code space).  The
//  139 // way it's defined in this sample app it is define in RAM.

        RSEG XDATA_Z:XDATA:NOROOT(0)
        DATA8
//  140 endPointDesc_t SampleApp_epDesc;
SampleApp_epDesc:
        DS 6
        REQUIRE __INIT_XDATA_Z
//  141 
//  142 /*********************************************************************
//  143  * EXTERNAL VARIABLES
//  144  */
//  145 
//  146 /*********************************************************************
//  147  * EXTERNAL FUNCTIONS
//  148  */
//  149 
//  150 /*********************************************************************
//  151  * LOCAL VARIABLES
//  152  */

        RSEG XDATA_Z:XDATA:NOROOT(0)
        DATA8
//  153 uint8 SampleApp_TaskID;   // Task ID for internal task/event processing
SampleApp_TaskID:
        DS 1
        REQUIRE __INIT_XDATA_Z
//  154                           // This variable will be received when
//  155                           // SampleApp_Init() is called.

        RSEG XDATA_Z:XDATA:NOROOT(0)
        DATA8
//  156 devStates_t SampleApp_NwkState;
SampleApp_NwkState:
        DS 1
        REQUIRE __INIT_XDATA_Z
//  157 

        RSEG XDATA_Z:XDATA:NOROOT(0)
        DATA8
//  158 uint8 SampleApp_TransID;  // This is the unique message ID (counter)
SampleApp_TransID:
        DS 1
        REQUIRE __INIT_XDATA_Z
//  159 

        RSEG XDATA_Z:XDATA:NOROOT(0)
        DATA8
//  160 afAddrType_t SampleApp_Periodic_DstAddr; //广播
SampleApp_Periodic_DstAddr:
        DS 12
        REQUIRE __INIT_XDATA_Z

        RSEG XDATA_Z:XDATA:NOROOT(0)
        DATA8
//  161 afAddrType_t SampleApp_Flash_DstAddr;    //组播
SampleApp_Flash_DstAddr:
        DS 12
        REQUIRE __INIT_XDATA_Z

        RSEG XDATA_Z:XDATA:NOROOT(0)
        DATA8
//  162 afAddrType_t SampleApp_P2P_DstAddr;      //点播
SampleApp_P2P_DstAddr:
        DS 12
        REQUIRE __INIT_XDATA_Z
//  163 

        RSEG XDATA_Z:XDATA:NOROOT(0)
        DATA8
//  164 aps_Group_t SampleApp_Group;
SampleApp_Group:
        DS 18
        REQUIRE __INIT_XDATA_Z
//  165 

        RSEG XDATA_Z:XDATA:NOROOT(0)
        DATA8
//  166 uint8 SampleAppPeriodicCounter = 0;
SampleAppPeriodicCounter:
        DS 1
        REQUIRE __INIT_XDATA_Z

        RSEG XDATA_Z:XDATA:NOROOT(0)
        DATA8
//  167 uint8 SampleAppFlashCounter = 0;
SampleAppFlashCounter:
        DS 1
        REQUIRE __INIT_XDATA_Z
//  168 
//  169 /*********************************************************************
//  170  * LOCAL FUNCTIONS
//  171  */
//  172 void SampleApp_HandleKeys( uint8 shift, uint8 keys );
//  173 void SampleApp_MessageMSGCB( afIncomingMSGPacket_t *pckt );
//  174 void SampleApp_SendPeriodicMessage( void );
//  175 void SampleApp_SendFlashMessage( uint16 flashTime );
//  176 void SampleApp_Send_P2P_Message(void);
//  177 void UartSendString(char *, int);
//  178 void InitUart(void);
//  179 //void DelayMS(uint msec);
//  180 /*********************************************************************
//  181  * NETWORK LAYER CALLBACKS
//  182  */
//  183 
//  184 /*********************************************************************
//  185  * PUBLIC FUNCTIONS
//  186  */
//  187 
//  188 
//  189 
//  190 
//  191 
//  192 uint16 ReadGasData( void );
//  193 /****************************************************************************
//  194 * 名 称: InitUart()
//  195 * 功 能: 串口初始化函数
//  196 * 入口参数: 无
//  197 * 出口参数: 无
//  198 ****************************************************************************/

        RSEG BANKED_CODE:CODE:NOROOT(0)
//  199 void InitUart(void)
InitUart:
        CFI Block cfiBlock0 Using cfiCommon0
        CFI Function InitUart
        CODE
//  200 {
        ; Saved register size: 0
        ; Auto size: 0
//  201 PERCFG = 0x00; //外设控制寄存器 USART 0 的 IO 位置:0 为 P0 口位置 1
        MOV     0xf1,#0x0
//  202 P0SEL = 0x0c; //P0_2,P0_3 用作串口（外设功能）
        MOV     0xf3,#0xc
//  203 P2DIR &= ~0XC0; //P0 优先作为 UART0
        ANL     0xff,#0x3f
//  204 U0CSR |= 0x80; //设置为 UART 方式
        ORL     0x86,#0x80
//  205 U0GCR |= 11;
        ORL     0xc5,#0xb
//  206 U0BAUD |= 216; //波特率设为 115200
        ORL     0xc2,#0xd8
//  207 UTX0IF = 0; //UART0 TX 中断标志初始置位 0
        CLR     0xe8.1
//  208 }
        LJMP    ?BRET
        CFI EndBlock cfiBlock0
        REQUIRE PERCFG
        REQUIRE P0SEL
        REQUIRE P2DIR
        REQUIRE U0CSR
        REQUIRE U0GCR
        REQUIRE U0BAUD
        REQUIRE _A_IRCON2
//  209 
//  210 
//  211 /****************************************************************************
//  212 * 名 称: UartSendString()
//  213 * 功 能: 串口发送函数
//  214 * 入口参数: Data:发送缓冲区 len:发送长度
//  215 * 出口参数: 无
//  216 ****************************************************************************/

        RSEG BANKED_CODE:CODE:NOROOT(0)
//  217 void UartSendString(char *Data, int len)
UartSendString:
        CFI Block cfiBlock1 Using cfiCommon0
        CFI Function UartSendString
        CODE
//  218 {
        MOV     A,#-0x9
        LCALL   ?BANKED_ENTER_XDATA
        CFI DPH0 load(1, XDATA, add(CFA_XSP16, literal(-1)))
        CFI DPL0 load(1, XDATA, add(CFA_XSP16, literal(-2)))
        CFI ?BRET_EXT load(1, XDATA, add(CFA_XSP16, literal(-3)))
        CFI ?RET_HIGH load(1, XDATA, add(CFA_XSP16, literal(-4)))
        CFI ?RET_LOW load(1, XDATA, add(CFA_XSP16, literal(-5)))
        CFI R7 load(1, XDATA, add(CFA_XSP16, literal(-6)))
        CFI V0 load(1, XDATA, add(CFA_XSP16, literal(-7)))
        CFI VB load(1, XDATA, add(CFA_XSP16, literal(-8)))
        CFI R6 load(1, XDATA, add(CFA_XSP16, literal(-9)))
        CFI CFA_SP SP+0
        CFI CFA_XSP16 add(XSP16, 9)
        ; Saved register size: 9
        ; Auto size: 0
//  219 uint i;
//  220 for(i=0; i<len; i++)
        MOV     R0,#0x0
        MOV     R1,#0x0
        SJMP    ??UartSendString_0
//  221 {
//  222 U0DBUF = *Data++;
??UartSendString_1:
        MOV     DPL,R2
        MOV     DPH,R3
        MOVX    A,@DPTR
        MOV     0xc1,A
        INC     DPTR
        MOV     R2,DPL
        MOV     R3,DPH
//  223 while(UTX0IF == 0);
??UartSendString_2:
        MOV     C,0xe8.1
        JNC     ??UartSendString_2
//  224 UTX0IF = 0;
        CLR     0xe8.1
//  225 }
        MOV     A,R0
        ADD     A,#0x1
        INC     R0
        MOV     A,R1
        ADDC    A,#0x0
        MOV     R1,A
??UartSendString_0:
        CLR     C
        MOV     A,R0
        SUBB    A,R4
        MOV     A,R1
        SUBB    A,R5
        JC      ??UartSendString_1
//  226 }
        MOV     R7,#0x1
        LJMP    ?BANKED_LEAVE_XDATA
        CFI EndBlock cfiBlock1
        REQUIRE U0DBUF
        REQUIRE _A_IRCON2
//  227 
//  228 /****************************************************************************
//  229 * 名 称: DelayMS()
//  230 * 功 能: 以毫秒为单位延时 16M 时约为 535,32M 时要调整,系统时钟不修改默认为
//  231 16M
//  232 * 入口参数: msec 延时参数，值越大延时越久
//  233 * 出口参数: 无
//  234 ****************************************************************************/
//  235 /*
//  236 void DelayMS(uint msec)
//  237 {
//  238 uint i,j;
//  239 for (i=0; i<msec; i++)
//  240 for (j=0; j<1070; j++);
//  241 }
//  242 */
//  243 

        RSEG BANKED_CODE:CODE:NOROOT(0)
//  244 uint16 ReadGasData( void )
ReadGasData:
        CFI Block cfiBlock2 Using cfiCommon0
        CFI Function ReadGasData
        CODE
//  245 {
        ; Saved register size: 0
        ; Auto size: 0
//  246 uint16 reading = 0;
//  247 ADCCFG |= 0x40; /* Enable channel */
        ORL     0xf2,#0x40
//  248 /* writing to this register starts the extra conversion */
//  249 ADCCON3 = 0x86;// 0x87;
        MOV     0xb6,#-0x7a
//  250 /* Wait for the conversion to be done */
//  251 while (!(ADCCON1 & 0x80));
??ReadGasData_0:
        MOV     A,0xb4
        MOV     C,0xE0 /* A   */.7
        JNC     ??ReadGasData_0
//  252 /* Disable channel after done conversion */
//  253 ADCCFG &= (0x80 ^ 0xFF); //按位异或。如 1010^1111=0101（二进制）
        ANL     0xf2,#0x7f
//  254 /* Read the result */
//  255 reading = ADCL;
        MOV     A,0xba
//  256 reading |= (int16) (ADCH << 8);
//  257 reading >>= 8;
//  258 return (reading);
        MOV     A,0xbb
        MOV     R2,A
        CLR     A
        MOV     R3,A
        LJMP    ?BRET
        CFI EndBlock cfiBlock2
        REQUIRE ADCCFG
        REQUIRE ADCCON3
        REQUIRE ADCCON1
        REQUIRE ADCL
        REQUIRE ADCH
//  259 }
//  260 
//  261 
//  262 
//  263 
//  264 
//  265 
//  266 
//  267 
//  268 
//  269 
//  270 
//  271 
//  272 /*********************************************************************
//  273  * @fn      SampleApp_Init
//  274  *
//  275  * @brief   Initialization function for the Generic App Task.
//  276  *          This is called during initialization and should contain
//  277  *          any application specific initialization (ie. hardware
//  278  *          initialization/setup, table initialization, power up
//  279  *          notificaiton ... ).
//  280  *
//  281  * @param   task_id - the ID assigned by OSAL.  This ID should be
//  282  *                    used to send messages and set timers.
//  283  *
//  284  * @return  none
//  285  */

        RSEG BANKED_CODE:CODE:NOROOT(0)
//  286 void SampleApp_Init( uint8 task_id )
SampleApp_Init:
        CFI Block cfiBlock3 Using cfiCommon0
        CFI Function SampleApp_Init
        CODE
//  287 { 
        FUNCALL SampleApp_Init, MT_UartInit
        LOCFRAME ISTACK, 0, STACK
        LOCFRAME PSTACK, 0, STACK
        LOCFRAME XSTACK, 11, STACK
        LOCFRAME IOVERLAY, 0, STATIC
        LOCFRAME DOVERLAY, 0, STATIC
        ARGFRAME ISTACK, 0, STACK
        ARGFRAME PSTACK, 0, STACK
        ARGFRAME XSTACK, 11, STACK
        ARGFRAME IOVERLAY, 0, STATIC
        ARGFRAME DOVERLAY, 0, STATIC
        FUNCALL SampleApp_Init, MT_UartRegisterTaskID
        LOCFRAME ISTACK, 0, STACK
        LOCFRAME PSTACK, 0, STACK
        LOCFRAME XSTACK, 11, STACK
        LOCFRAME IOVERLAY, 0, STATIC
        LOCFRAME DOVERLAY, 0, STATIC
        ARGFRAME ISTACK, 0, STACK
        ARGFRAME PSTACK, 0, STACK
        ARGFRAME XSTACK, 11, STACK
        ARGFRAME IOVERLAY, 0, STATIC
        ARGFRAME DOVERLAY, 0, STATIC
        FUNCALL SampleApp_Init, InitUart
        LOCFRAME ISTACK, 0, STACK
        LOCFRAME PSTACK, 0, STACK
        LOCFRAME XSTACK, 11, STACK
        LOCFRAME IOVERLAY, 0, STATIC
        LOCFRAME DOVERLAY, 0, STATIC
        ARGFRAME ISTACK, 0, STACK
        ARGFRAME PSTACK, 0, STACK
        ARGFRAME XSTACK, 11, STACK
        ARGFRAME IOVERLAY, 0, STATIC
        ARGFRAME DOVERLAY, 0, STATIC
        FUNCALL SampleApp_Init, afRegister
        LOCFRAME ISTACK, 0, STACK
        LOCFRAME PSTACK, 0, STACK
        LOCFRAME XSTACK, 11, STACK
        LOCFRAME IOVERLAY, 0, STATIC
        LOCFRAME DOVERLAY, 0, STATIC
        ARGFRAME ISTACK, 0, STACK
        ARGFRAME PSTACK, 0, STACK
        ARGFRAME XSTACK, 11, STACK
        ARGFRAME IOVERLAY, 0, STATIC
        ARGFRAME DOVERLAY, 0, STATIC
        FUNCALL SampleApp_Init, RegisterForKeys
        LOCFRAME ISTACK, 0, STACK
        LOCFRAME PSTACK, 0, STACK
        LOCFRAME XSTACK, 11, STACK
        LOCFRAME IOVERLAY, 0, STATIC
        LOCFRAME DOVERLAY, 0, STATIC
        ARGFRAME ISTACK, 0, STACK
        ARGFRAME PSTACK, 0, STACK
        ARGFRAME XSTACK, 11, STACK
        ARGFRAME IOVERLAY, 0, STATIC
        ARGFRAME DOVERLAY, 0, STATIC
        FUNCALL SampleApp_Init, osal_memcpy
        LOCFRAME ISTACK, 0, STACK
        LOCFRAME PSTACK, 0, STACK
        LOCFRAME XSTACK, 14, STACK
        LOCFRAME IOVERLAY, 0, STATIC
        LOCFRAME DOVERLAY, 0, STATIC
        ARGFRAME ISTACK, 0, STACK
        ARGFRAME PSTACK, 0, STACK
        ARGFRAME XSTACK, 14, STACK
        ARGFRAME IOVERLAY, 0, STATIC
        ARGFRAME DOVERLAY, 0, STATIC
        FUNCALL SampleApp_Init, aps_AddGroup
        LOCFRAME ISTACK, 0, STACK
        LOCFRAME PSTACK, 0, STACK
        LOCFRAME XSTACK, 11, STACK
        LOCFRAME IOVERLAY, 0, STATIC
        LOCFRAME DOVERLAY, 0, STATIC
        ARGFRAME ISTACK, 0, STACK
        ARGFRAME PSTACK, 0, STACK
        ARGFRAME XSTACK, 11, STACK
        ARGFRAME IOVERLAY, 0, STATIC
        ARGFRAME DOVERLAY, 0, STATIC
        FUNCALL SampleApp_Init, HalLcdWriteString
        LOCFRAME ISTACK, 0, STACK
        LOCFRAME PSTACK, 0, STACK
        LOCFRAME XSTACK, 11, STACK
        LOCFRAME IOVERLAY, 0, STATIC
        LOCFRAME DOVERLAY, 0, STATIC
        ARGFRAME ISTACK, 0, STACK
        ARGFRAME PSTACK, 0, STACK
        ARGFRAME XSTACK, 11, STACK
        ARGFRAME IOVERLAY, 0, STATIC
        ARGFRAME DOVERLAY, 0, STATIC
        MOV     A,#-0xb
        LCALL   ?BANKED_ENTER_XDATA
        CFI DPH0 load(1, XDATA, add(CFA_XSP16, literal(-1)))
        CFI DPL0 load(1, XDATA, add(CFA_XSP16, literal(-2)))
        CFI ?BRET_EXT load(1, XDATA, add(CFA_XSP16, literal(-3)))
        CFI ?RET_HIGH load(1, XDATA, add(CFA_XSP16, literal(-4)))
        CFI ?RET_LOW load(1, XDATA, add(CFA_XSP16, literal(-5)))
        CFI R7 load(1, XDATA, add(CFA_XSP16, literal(-6)))
        CFI V2 load(1, XDATA, add(CFA_XSP16, literal(-7)))
        CFI V1 load(1, XDATA, add(CFA_XSP16, literal(-8)))
        CFI V0 load(1, XDATA, add(CFA_XSP16, literal(-9)))
        CFI VB load(1, XDATA, add(CFA_XSP16, literal(-10)))
        CFI R6 load(1, XDATA, add(CFA_XSP16, literal(-11)))
        CFI CFA_SP SP+0
        CFI CFA_XSP16 add(XSP16, 11)
        ; Saved register size: 11
        ; Auto size: 0
        MOV     A,R1
        MOV     R6,A
//  288   SampleApp_TaskID = task_id;
        MOV     DPTR,#SampleApp_TaskID
        MOVX    @DPTR,A
//  289   SampleApp_NwkState = DEV_INIT;
        MOV     DPTR,#SampleApp_NwkState
        MOV     A,#0x1
        MOVX    @DPTR,A
//  290   SampleApp_TransID = 0;
        MOV     DPTR,#SampleApp_TransID
        CLR     A
        MOVX    @DPTR,A
//  291   
//  292   MT_UartInit();                  //串口初始化
        ; Setup parameters for call to function MT_UartInit
        LCALL   ??MT_UartInit?relay
//  293   MT_UartRegisterTaskID(task_id); //注册串口任务
        ; Setup parameters for call to function MT_UartRegisterTaskID
        MOV     A,R6
        MOV     R1,A
        LCALL   ??MT_UartRegisterTaskID?relay
//  294   
//  295   
//  296   
//  297     P1DIR|=0x02;
        ORL     0xfe,#0x2
//  298     P1SEL&=~0x02;
        ANL     0xf4,#0xfd
//  299     P1_1=0;
        CLR     0x90.1
//  300     
//  301     P1DIR|=0x01;
        ORL     0xfe,#0x1
//  302     P1SEL&=~0x01;
        ANL     0xf4,#0xfe
//  303     P1_0=0;
        CLR     0x90.0
//  304   
//  305   
//  306   
//  307   P0SEL &= 0x7f;                  //P0_7配置成通用io
        ANL     0xf3,#0x7f
//  308   P0SEL &= ~0x40;                 //设置P0.6为普通IO口
        ANL     0xf3,#0xbf
//  309   P0DIR &= ~0x40;                 //P0.6定义为输入口
        ANL     0xfd,#0xbf
//  310   
//  311   
//  312   //P0DIR|=0x10;
//  313   //P0SEL&=~0x10;
//  314   
//  315   CLKCONCMD &= ~0x40; //设置系统时钟源为 32MHZ 晶振
        ANL     0xc6,#0xbf
//  316    while(CLKCONSTA & 0x40); //等待晶振稳定为 32M
??SampleApp_Init_0:
        MOV     A,0x9e
        MOV     C,0xE0 /* A   */.6
        JC      ??SampleApp_Init_0
//  317   CLKCONCMD &= ~0x47; //设置系统主时钟频率为 32MHZ
        ANL     0xc6,#0xb8
//  318   
//  319   InitUart();
        ; Setup parameters for call to function InitUart
        LCALL   ??InitUart?relay
//  320   
//  321   
//  322   
//  323   // Device hardware initialization can be added here or in main() (Zmain.c).
//  324   // If the hardware is application specific - add it here.
//  325   // If the hardware is other parts of the device add it in main().
//  326 
//  327  #if defined ( BUILD_ALL_DEVICES )
//  328   // The "Demo" target is setup to have BUILD_ALL_DEVICES and HOLD_AUTO_START
//  329   // We are looking at a jumper (defined in SampleAppHw.c) to be jumpered
//  330   // together - if they are - we will start up a coordinator. Otherwise,
//  331   // the device will start as a router.
//  332   if ( readCoordinatorJumper() )
//  333     zgDeviceLogicalType = ZG_DEVICETYPE_COORDINATOR;
//  334   else
//  335     zgDeviceLogicalType = ZG_DEVICETYPE_ROUTER;
//  336 #endif // BUILD_ALL_DEVICES
//  337 
//  338 #if defined ( HOLD_AUTO_START )
//  339   // HOLD_AUTO_START is a compile option that will surpress ZDApp
//  340   //  from starting the device and wait for the application to
//  341   //  start the device.
//  342   ZDOInitDevice(0);
//  343 #endif
//  344 
//  345   // Setup for the periodic message's destination address
//  346   // Broadcast to everyone
//  347   SampleApp_Periodic_DstAddr.addrMode = (afAddrMode_t)AddrBroadcast;
        MOV     DPTR,#SampleApp_Periodic_DstAddr + 8
        MOV     A,#0xf
        MOVX    @DPTR,A
//  348   SampleApp_Periodic_DstAddr.endPoint = SAMPLEAPP_ENDPOINT;
        INC     DPTR
        MOV     A,#0x14
        MOVX    @DPTR,A
//  349   SampleApp_Periodic_DstAddr.addr.shortAddr = 0xFFFF;
        MOV     DPTR,#SampleApp_Periodic_DstAddr
        MOV     A,#-0x1
        MOVX    @DPTR,A
        INC     DPTR
        MOVX    @DPTR,A
//  350 
//  351   // Setup for the flash command's destination address - Group 1
//  352   SampleApp_Flash_DstAddr.addrMode = (afAddrMode_t)afAddrGroup;
        MOV     DPTR,#SampleApp_Flash_DstAddr + 8
        MOV     A,#0x1
        MOVX    @DPTR,A
//  353   SampleApp_Flash_DstAddr.endPoint = SAMPLEAPP_ENDPOINT;
        INC     DPTR
        MOV     A,#0x14
        MOVX    @DPTR,A
//  354   SampleApp_Flash_DstAddr.addr.shortAddr = SAMPLEAPP_FLASH_GROUP;
        MOV     DPTR,#SampleApp_Flash_DstAddr
        MOV     A,#0x1
        MOVX    @DPTR,A
        INC     DPTR
        CLR     A
        MOVX    @DPTR,A
//  355   
//  356   SampleApp_P2P_DstAddr.addrMode = (afAddrMode_t)Addr16Bit; //点播 
        MOV     DPTR,#SampleApp_P2P_DstAddr + 8
        MOV     A,#0x2
        MOVX    @DPTR,A
//  357   SampleApp_P2P_DstAddr.endPoint = SAMPLEAPP_ENDPOINT; 
        INC     DPTR
        MOV     A,#0x14
        MOVX    @DPTR,A
//  358   SampleApp_P2P_DstAddr.addr.shortAddr = 0x0000;            //发给协调器
        MOV     DPTR,#SampleApp_P2P_DstAddr
        CLR     A
        MOVX    @DPTR,A
        INC     DPTR
        MOVX    @DPTR,A
//  359 
//  360   // Fill out the endpoint description.
//  361   SampleApp_epDesc.endPoint = SAMPLEAPP_ENDPOINT;
        MOV     DPTR,#SampleApp_epDesc
        MOV     A,#0x14
        MOVX    @DPTR,A
//  362   SampleApp_epDesc.task_id = &SampleApp_TaskID;
        INC     DPTR
        MOV     A,#SampleApp_TaskID & 0xff
        MOVX    @DPTR,A
        INC     DPTR
        MOV     A,#(SampleApp_TaskID >> 8) & 0xff
        MOVX    @DPTR,A
//  363   SampleApp_epDesc.simpleDesc
//  364             = (SimpleDescriptionFormat_t *)&SampleApp_SimpleDesc;
        INC     DPTR
        MOV     A,#SampleApp_SimpleDesc & 0xff
        MOVX    @DPTR,A
        INC     DPTR
        MOV     A,#(SampleApp_SimpleDesc >> 8) & 0xff
        MOVX    @DPTR,A
//  365   SampleApp_epDesc.latencyReq = noLatencyReqs;
        INC     DPTR
        CLR     A
        MOVX    @DPTR,A
//  366 
//  367   // Register the endpoint description with the AF
//  368   afRegister( &SampleApp_epDesc );
        ; Setup parameters for call to function afRegister
        MOV     R2,#SampleApp_epDesc & 0xff
        MOV     R3,#(SampleApp_epDesc >> 8) & 0xff
        LCALL   ??afRegister?relay
//  369 
//  370   // Register for all key events - This app will handle all key events
//  371   RegisterForKeys( SampleApp_TaskID );
        ; Setup parameters for call to function RegisterForKeys
        MOV     DPTR,#SampleApp_TaskID
        MOVX    A,@DPTR
        MOV     R1,A
        LCALL   ??RegisterForKeys?relay
//  372 
//  373   // By default, all devices start out in Group 1
//  374   SampleApp_Group.ID = 0x0001;
        MOV     DPTR,#SampleApp_Group
        MOV     A,#0x1
        MOVX    @DPTR,A
        INC     DPTR
        CLR     A
        MOVX    @DPTR,A
//  375   osal_memcpy( SampleApp_Group.name, "Group 1", 7 );
        ; Setup parameters for call to function osal_memcpy
        MOV     ?V0 + 0,#`?<Constant "Group 1">` & 0xff
        MOV     ?V0 + 1,#(`?<Constant "Group 1">` >> 8) & 0xff
        MOV     ?V0 + 2,A
        MOV     R0,#?V0 + 0
        LCALL   ?PUSH_XSTACK_I_THREE
        CFI CFA_XSP16 add(XSP16, 14)
        MOV     R4,#0x7
        MOV     R5,#0x0
        MOV     R2,#(SampleApp_Group + 2) & 0xff
        MOV     R3,#((SampleApp_Group + 2) >> 8) & 0xff
        LCALL   ??Subroutine13_0 & 0xFFFF
??CrossCallReturnLabel_22:
        LCALL   ?DEALLOC_XSTACK8
        CFI CFA_XSP16 add(XSP16, 11)
//  376   aps_AddGroup( SAMPLEAPP_ENDPOINT, &SampleApp_Group );
        ; Setup parameters for call to function aps_AddGroup
        MOV     R2,#SampleApp_Group & 0xff
        MOV     R3,#(SampleApp_Group >> 8) & 0xff
        MOV     R1,#0x14
        LCALL   ??aps_AddGroup?relay
//  377 
//  378 #if defined ( LCD_SUPPORTED )
//  379   HalLcdWriteString( "SampleApp", HAL_LCD_LINE_1 );
        ; Setup parameters for call to function HalLcdWriteString
        MOV     R1,#0x1
        MOV     R2,#`?<Constant "SampleApp">` & 0xff
        MOV     R3,#(`?<Constant "SampleApp">` >> 8) & 0xff
        LCALL   ??HalLcdWriteString?relay
        CFI EndBlock cfiBlock3
//  380 #endif
//  381 }
        REQUIRE ?Subroutine0
        REQUIRE P1DIR
        REQUIRE P1SEL
        REQUIRE _A_P1
        REQUIRE P0SEL
        REQUIRE P0DIR
        REQUIRE CLKCONCMD
        REQUIRE CLKCONSTA
        ; // Fall through to label ?Subroutine0

        RSEG BANKED_CODE:CODE:NOROOT(0)
?Subroutine0:
        CFI Block cfiBlock4 Using cfiCommon0
        CFI NoFunction
        CFI CFA_SP SP+0
        CFI CFA_XSP16 add(XSP16, 11)
        CFI VB load(1, XDATA, add(CFA_XSP16, literal(-10)))
        CFI DPL0 load(1, XDATA, add(CFA_XSP16, literal(-2)))
        CFI DPH0 load(1, XDATA, add(CFA_XSP16, literal(-1)))
        CFI R6 load(1, XDATA, add(CFA_XSP16, literal(-11)))
        CFI R7 load(1, XDATA, add(CFA_XSP16, literal(-6)))
        CFI V0 load(1, XDATA, add(CFA_XSP16, literal(-9)))
        CFI V1 load(1, XDATA, add(CFA_XSP16, literal(-8)))
        CFI V2 load(1, XDATA, add(CFA_XSP16, literal(-7)))
        CFI ?BRET_EXT load(1, XDATA, add(CFA_XSP16, literal(-3)))
        CFI ?RET_HIGH load(1, XDATA, add(CFA_XSP16, literal(-4)))
        CFI ?RET_LOW load(1, XDATA, add(CFA_XSP16, literal(-5)))
        MOV     R7,#0x3
        LJMP    ?BANKED_LEAVE_XDATA
        CFI EndBlock cfiBlock4
//  382 
//  383 /*********************************************************************
//  384  * @fn      SampleApp_ProcessEvent
//  385  *
//  386  * @brief   Generic Application Task event processor.  This function
//  387  *          is called to process all events for the task.  Events
//  388  *          include timers, messages and any other user defined events.
//  389  *
//  390  * @param   task_id  - The OSAL assigned task ID.
//  391  * @param   events - events to process.  This is a bit map and can
//  392  *                   contain more than one event.
//  393  *
//  394  * @return  none
//  395  */

        RSEG BANKED_CODE:CODE:NOROOT(0)
//  396 uint16 SampleApp_ProcessEvent( uint8 task_id, uint16 events )
SampleApp_ProcessEvent:
        CFI Block cfiBlock5 Using cfiCommon0
        CFI Function SampleApp_ProcessEvent
        CODE
//  397 {
        FUNCALL SampleApp_ProcessEvent, osal_msg_receive
        LOCFRAME ISTACK, 0, STACK
        LOCFRAME PSTACK, 0, STACK
        LOCFRAME XSTACK, 12, STACK
        LOCFRAME IOVERLAY, 0, STATIC
        LOCFRAME DOVERLAY, 0, STATIC
        ARGFRAME ISTACK, 0, STACK
        ARGFRAME PSTACK, 0, STACK
        ARGFRAME XSTACK, 12, STACK
        ARGFRAME IOVERLAY, 0, STATIC
        ARGFRAME DOVERLAY, 0, STATIC
        FUNCALL SampleApp_ProcessEvent, osal_start_timerEx
        LOCFRAME ISTACK, 0, STACK
        LOCFRAME PSTACK, 0, STACK
        LOCFRAME XSTACK, 12, STACK
        LOCFRAME IOVERLAY, 0, STATIC
        LOCFRAME DOVERLAY, 0, STATIC
        ARGFRAME ISTACK, 0, STACK
        ARGFRAME PSTACK, 0, STACK
        ARGFRAME XSTACK, 12, STACK
        ARGFRAME IOVERLAY, 0, STATIC
        ARGFRAME DOVERLAY, 0, STATIC
        FUNCALL SampleApp_ProcessEvent, osal_msg_deallocate
        LOCFRAME ISTACK, 0, STACK
        LOCFRAME PSTACK, 0, STACK
        LOCFRAME XSTACK, 12, STACK
        LOCFRAME IOVERLAY, 0, STATIC
        LOCFRAME DOVERLAY, 0, STATIC
        ARGFRAME ISTACK, 0, STACK
        ARGFRAME PSTACK, 0, STACK
        ARGFRAME XSTACK, 12, STACK
        ARGFRAME IOVERLAY, 0, STATIC
        ARGFRAME DOVERLAY, 0, STATIC
        FUNCALL SampleApp_ProcessEvent, osal_msg_receive
        LOCFRAME ISTACK, 0, STACK
        LOCFRAME PSTACK, 0, STACK
        LOCFRAME XSTACK, 12, STACK
        LOCFRAME IOVERLAY, 0, STATIC
        LOCFRAME DOVERLAY, 0, STATIC
        ARGFRAME ISTACK, 0, STACK
        ARGFRAME PSTACK, 0, STACK
        ARGFRAME XSTACK, 12, STACK
        ARGFRAME IOVERLAY, 0, STATIC
        ARGFRAME DOVERLAY, 0, STATIC
        FUNCALL SampleApp_ProcessEvent, SampleApp_HandleKeys
        LOCFRAME ISTACK, 0, STACK
        LOCFRAME PSTACK, 0, STACK
        LOCFRAME XSTACK, 12, STACK
        LOCFRAME IOVERLAY, 0, STATIC
        LOCFRAME DOVERLAY, 0, STATIC
        ARGFRAME ISTACK, 0, STACK
        ARGFRAME PSTACK, 0, STACK
        ARGFRAME XSTACK, 12, STACK
        ARGFRAME IOVERLAY, 0, STATIC
        ARGFRAME DOVERLAY, 0, STATIC
        FUNCALL SampleApp_ProcessEvent, SampleApp_MessageMSGCB
        LOCFRAME ISTACK, 0, STACK
        LOCFRAME PSTACK, 0, STACK
        LOCFRAME XSTACK, 12, STACK
        LOCFRAME IOVERLAY, 0, STATIC
        LOCFRAME DOVERLAY, 0, STATIC
        ARGFRAME ISTACK, 0, STACK
        ARGFRAME PSTACK, 0, STACK
        ARGFRAME XSTACK, 12, STACK
        ARGFRAME IOVERLAY, 0, STATIC
        ARGFRAME DOVERLAY, 0, STATIC
        FUNCALL SampleApp_ProcessEvent, SampleApp_Send_P2P_Message
        LOCFRAME ISTACK, 0, STACK
        LOCFRAME PSTACK, 0, STACK
        LOCFRAME XSTACK, 12, STACK
        LOCFRAME IOVERLAY, 0, STATIC
        LOCFRAME DOVERLAY, 0, STATIC
        ARGFRAME ISTACK, 0, STACK
        ARGFRAME PSTACK, 0, STACK
        ARGFRAME XSTACK, 12, STACK
        ARGFRAME IOVERLAY, 0, STATIC
        ARGFRAME DOVERLAY, 0, STATIC
        FUNCALL SampleApp_ProcessEvent, osal_rand
        LOCFRAME ISTACK, 0, STACK
        LOCFRAME PSTACK, 0, STACK
        LOCFRAME XSTACK, 12, STACK
        LOCFRAME IOVERLAY, 0, STATIC
        LOCFRAME DOVERLAY, 0, STATIC
        ARGFRAME ISTACK, 0, STACK
        ARGFRAME PSTACK, 0, STACK
        ARGFRAME XSTACK, 12, STACK
        ARGFRAME IOVERLAY, 0, STATIC
        ARGFRAME DOVERLAY, 0, STATIC
        FUNCALL SampleApp_ProcessEvent, osal_start_timerEx
        LOCFRAME ISTACK, 0, STACK
        LOCFRAME PSTACK, 0, STACK
        LOCFRAME XSTACK, 12, STACK
        LOCFRAME IOVERLAY, 0, STATIC
        LOCFRAME DOVERLAY, 0, STATIC
        ARGFRAME ISTACK, 0, STACK
        ARGFRAME PSTACK, 0, STACK
        ARGFRAME XSTACK, 12, STACK
        ARGFRAME IOVERLAY, 0, STATIC
        ARGFRAME DOVERLAY, 0, STATIC
        MOV     A,#-0xc
        LCALL   ?BANKED_ENTER_XDATA
        CFI DPH0 load(1, XDATA, add(CFA_XSP16, literal(-1)))
        CFI DPL0 load(1, XDATA, add(CFA_XSP16, literal(-2)))
        CFI ?BRET_EXT load(1, XDATA, add(CFA_XSP16, literal(-3)))
        CFI ?RET_HIGH load(1, XDATA, add(CFA_XSP16, literal(-4)))
        CFI ?RET_LOW load(1, XDATA, add(CFA_XSP16, literal(-5)))
        CFI R7 load(1, XDATA, add(CFA_XSP16, literal(-6)))
        CFI V3 load(1, XDATA, add(CFA_XSP16, literal(-7)))
        CFI V2 load(1, XDATA, add(CFA_XSP16, literal(-8)))
        CFI V1 load(1, XDATA, add(CFA_XSP16, literal(-9)))
        CFI V0 load(1, XDATA, add(CFA_XSP16, literal(-10)))
        CFI VB load(1, XDATA, add(CFA_XSP16, literal(-11)))
        CFI R6 load(1, XDATA, add(CFA_XSP16, literal(-12)))
        CFI CFA_SP SP+0
        CFI CFA_XSP16 add(XSP16, 12)
        ; Saved register size: 12
        ; Auto size: 0
        MOV     A,R2
        MOV     R6,A
        MOV     A,R3
        MOV     R7,A
//  398   afIncomingMSGPacket_t *MSGpkt;
//  399   (void)task_id;  // Intentionally unreferenced parameter
//  400 
//  401   if ( events & SYS_EVENT_MSG )
        ANL     A,#0x80
        JZ      ??SampleApp_ProcessEvent_0
//  402   {
//  403     MSGpkt = (afIncomingMSGPacket_t *)osal_msg_receive( SampleApp_TaskID );
        ; Setup parameters for call to function osal_msg_receive
        SJMP    ??SampleApp_ProcessEvent_1
//  404     while ( MSGpkt )
//  405     {
//  406       switch ( MSGpkt->hdr.event )
//  407       {
//  408         // Received when a key is pressed
//  409         case KEY_CHANGE:
//  410           SampleApp_HandleKeys( ((keyChange_t *)MSGpkt)->state, ((keyChange_t *)MSGpkt)->keys );
//  411           break;
//  412 
//  413         // Received when a messages is received (OTA) for this endpoint
//  414         case AF_INCOMING_MSG_CMD:
//  415           SampleApp_MessageMSGCB( MSGpkt );
//  416           break;
//  417 
//  418         // Received whenever the device changes state in the network
//  419         case ZDO_STATE_CHANGE:
//  420           SampleApp_NwkState = (devStates_t)(MSGpkt->hdr.status);
??SampleApp_ProcessEvent_2:
        INC     DPTR
        MOVX    A,@DPTR
        MOV     DPTR,#SampleApp_NwkState
        MOVX    @DPTR,A
//  421           if ( //(SampleApp_NwkState == DEV_ZB_COORD) ||
//  422                  (SampleApp_NwkState == DEV_ROUTER)
//  423               || (SampleApp_NwkState == DEV_END_DEVICE) )
        XRL     A,#0x7
        JZ      ??SampleApp_ProcessEvent_3
        MOVX    A,@DPTR
        XRL     A,#0x6
        JNZ     ??SampleApp_ProcessEvent_4
//  424           {
//  425             // Start sending the periodic message in a regular interval.
//  426             osal_start_timerEx( SampleApp_TaskID,
//  427                               SAMPLEAPP_SEND_PERIODIC_MSG_EVT,
//  428                               SAMPLEAPP_SEND_PERIODIC_MSG_TIMEOUT );
??SampleApp_ProcessEvent_3:
        ; Setup parameters for call to function osal_start_timerEx
        MOV     R4,#-0x30
        MOV     R5,#0x7
        MOV     R2,#0x1
        MOV     R3,#0x0
        MOV     DPTR,#SampleApp_TaskID
        MOVX    A,@DPTR
        MOV     R1,A
        LCALL   ??osal_start_timerEx?relay
//  429           }
//  430           else
//  431           {
//  432             // Device is no longer in the network
//  433           }
//  434           break;
//  435 
//  436         default:
//  437           break;
//  438       }
//  439 
//  440       // Release the memory
//  441       osal_msg_deallocate( (uint8 *)MSGpkt );
??SampleApp_ProcessEvent_4:
        ; Setup parameters for call to function osal_msg_deallocate
        MOV     R2,?V0 + 0
        MOV     R3,?V0 + 1
        LCALL   ??osal_msg_deallocate?relay
//  442 
//  443       // Next - if one is available
//  444       MSGpkt = (afIncomingMSGPacket_t *)osal_msg_receive( SampleApp_TaskID );
        ; Setup parameters for call to function osal_msg_receive
??SampleApp_ProcessEvent_1:
        MOV     DPTR,#SampleApp_TaskID
        MOVX    A,@DPTR
        MOV     R1,A
        LCALL   ??osal_msg_receive?relay
        MOV     ?V0 + 0,R2
        MOV     ?V0 + 1,R3
        MOV     A,?V0 + 0
        ORL     A,?V0 + 1
        JZ      ??SampleApp_ProcessEvent_5
        MOV     DPL,?V0 + 0
        MOV     DPH,?V0 + 1
        MOVX    A,@DPTR
        ADD     A,#-0x1a
        JZ      ??SampleApp_ProcessEvent_6
        ADD     A,#0x5a
        JZ      ??SampleApp_ProcessEvent_7
        ADD     A,#-0x11
        JZ      ??SampleApp_ProcessEvent_2
        SJMP    ??SampleApp_ProcessEvent_4
??SampleApp_ProcessEvent_7:
        ; Setup parameters for call to function SampleApp_HandleKeys
        INC     DPTR
        INC     DPTR
        INC     DPTR
        MOVX    A,@DPTR
        MOV     R2,A
        MOV     DPL,?V0 + 0
        MOV     DPH,?V0 + 1
        INC     DPTR
        INC     DPTR
        MOVX    A,@DPTR
        MOV     R1,A
        LCALL   ??SampleApp_HandleKeys?relay
        SJMP    ??SampleApp_ProcessEvent_4
??SampleApp_ProcessEvent_6:
        ; Setup parameters for call to function SampleApp_MessageMSGCB
        MOV     R2,?V0 + 0
        MOV     R3,?V0 + 1
        LCALL   ??SampleApp_MessageMSGCB?relay
        SJMP    ??SampleApp_ProcessEvent_4
//  445     }
//  446 
//  447     // return unprocessed events
//  448     return (events ^ SYS_EVENT_MSG);
??SampleApp_ProcessEvent_5:
        MOV     A,R6
        MOV     R2,A
        MOV     A,R7
        XRL     A,#0x80
??SampleApp_ProcessEvent_8:
        MOV     R3,A
        SJMP    ??SampleApp_ProcessEvent_9
//  449   }
//  450 
//  451   // Send a message out - This event is generated by a timer
//  452   //  (setup in SampleApp_Init()).
//  453   if ( events & SAMPLEAPP_SEND_PERIODIC_MSG_EVT )
??SampleApp_ProcessEvent_0:
        MOV     A,R6
        MOV     C,0xE0 /* A   */.0
        JNC     ??SampleApp_ProcessEvent_10
//  454   {
//  455     // Send the periodic message
//  456     //SampleApp_SendPeriodicMessage();
//  457     SampleApp_Send_P2P_Message();
        ; Setup parameters for call to function SampleApp_Send_P2P_Message
        LCALL   ??SampleApp_Send_P2P_Message?relay
//  458 
//  459     // Setup to send message again in normal period (+ a little jitter)
//  460     osal_start_timerEx( SampleApp_TaskID, SAMPLEAPP_SEND_PERIODIC_MSG_EVT,
//  461         (SAMPLEAPP_SEND_PERIODIC_MSG_TIMEOUT + (osal_rand() & 0x00FF)) );
        ; Setup parameters for call to function osal_rand
        LCALL   ??osal_rand?relay
        ; Setup parameters for call to function osal_start_timerEx
        MOV     A,R2
        ADD     A,#-0x30
        MOV     R4,A
        CLR     A
        ADDC    A,#0x7
        MOV     R5,A
        MOV     R2,#0x1
        MOV     R3,#0x0
        MOV     DPTR,#SampleApp_TaskID
        MOVX    A,@DPTR
        MOV     R1,A
        LCALL   ??osal_start_timerEx?relay
//  462 
//  463     // return unprocessed events
//  464     return (events ^ SAMPLEAPP_SEND_PERIODIC_MSG_EVT);
        MOV     A,R6
        XRL     A,#0x1
        MOV     R2,A
        MOV     A,R7
        SJMP    ??SampleApp_ProcessEvent_8
//  465   }
//  466 
//  467   // Discard unknown events
//  468   return 0;
??SampleApp_ProcessEvent_10:
        MOV     R2,#0x0
        MOV     R3,#0x0
??SampleApp_ProcessEvent_9:
        MOV     R7,#0x4
        LJMP    ?BANKED_LEAVE_XDATA
        CFI EndBlock cfiBlock5
//  469 }
//  470 
//  471 /*********************************************************************
//  472  * Event Generation Functions
//  473  */
//  474 /*********************************************************************
//  475  * @fn      SampleApp_HandleKeys
//  476  *
//  477  * @brief   Handles all key events for this device.
//  478  *
//  479  * @param   shift - true if in shift/alt.
//  480  * @param   keys - bit field for key events. Valid entries:
//  481  *                 HAL_KEY_SW_2
//  482  *                 HAL_KEY_SW_1
//  483  *
//  484  * @return  none
//  485  */

        RSEG BANKED_CODE:CODE:NOROOT(0)
//  486 void SampleApp_HandleKeys( uint8 shift, uint8 keys )
SampleApp_HandleKeys:
        CFI Block cfiBlock6 Using cfiCommon0
        CFI Function SampleApp_HandleKeys
        CODE
//  487 {
        FUNCALL SampleApp_HandleKeys, SampleApp_SendFlashMessage
        LOCFRAME ISTACK, 0, STACK
        LOCFRAME PSTACK, 0, STACK
        LOCFRAME XSTACK, 10, STACK
        LOCFRAME IOVERLAY, 0, STATIC
        LOCFRAME DOVERLAY, 0, STATIC
        ARGFRAME ISTACK, 0, STACK
        ARGFRAME PSTACK, 0, STACK
        ARGFRAME XSTACK, 10, STACK
        ARGFRAME IOVERLAY, 0, STATIC
        ARGFRAME DOVERLAY, 0, STATIC
        FUNCALL SampleApp_HandleKeys, aps_FindGroup
        LOCFRAME ISTACK, 0, STACK
        LOCFRAME PSTACK, 0, STACK
        LOCFRAME XSTACK, 10, STACK
        LOCFRAME IOVERLAY, 0, STATIC
        LOCFRAME DOVERLAY, 0, STATIC
        ARGFRAME ISTACK, 0, STACK
        ARGFRAME PSTACK, 0, STACK
        ARGFRAME XSTACK, 10, STACK
        ARGFRAME IOVERLAY, 0, STATIC
        ARGFRAME DOVERLAY, 0, STATIC
        FUNCALL SampleApp_HandleKeys, aps_RemoveGroup
        LOCFRAME ISTACK, 0, STACK
        LOCFRAME PSTACK, 0, STACK
        LOCFRAME XSTACK, 10, STACK
        LOCFRAME IOVERLAY, 0, STATIC
        LOCFRAME DOVERLAY, 0, STATIC
        ARGFRAME ISTACK, 0, STACK
        ARGFRAME PSTACK, 0, STACK
        ARGFRAME XSTACK, 10, STACK
        ARGFRAME IOVERLAY, 0, STATIC
        ARGFRAME DOVERLAY, 0, STATIC
        FUNCALL SampleApp_HandleKeys, aps_AddGroup
        LOCFRAME ISTACK, 0, STACK
        LOCFRAME PSTACK, 0, STACK
        LOCFRAME XSTACK, 10, STACK
        LOCFRAME IOVERLAY, 0, STATIC
        LOCFRAME DOVERLAY, 0, STATIC
        ARGFRAME ISTACK, 0, STACK
        ARGFRAME PSTACK, 0, STACK
        ARGFRAME XSTACK, 10, STACK
        ARGFRAME IOVERLAY, 0, STATIC
        ARGFRAME DOVERLAY, 0, STATIC
        MOV     A,#-0xa
        LCALL   ?BANKED_ENTER_XDATA
        CFI DPH0 load(1, XDATA, add(CFA_XSP16, literal(-1)))
        CFI DPL0 load(1, XDATA, add(CFA_XSP16, literal(-2)))
        CFI ?BRET_EXT load(1, XDATA, add(CFA_XSP16, literal(-3)))
        CFI ?RET_HIGH load(1, XDATA, add(CFA_XSP16, literal(-4)))
        CFI ?RET_LOW load(1, XDATA, add(CFA_XSP16, literal(-5)))
        CFI R7 load(1, XDATA, add(CFA_XSP16, literal(-6)))
        CFI V1 load(1, XDATA, add(CFA_XSP16, literal(-7)))
        CFI V0 load(1, XDATA, add(CFA_XSP16, literal(-8)))
        CFI VB load(1, XDATA, add(CFA_XSP16, literal(-9)))
        CFI R6 load(1, XDATA, add(CFA_XSP16, literal(-10)))
        CFI CFA_SP SP+0
        CFI CFA_XSP16 add(XSP16, 10)
        ; Saved register size: 10
        ; Auto size: 0
        MOV     A,R2
        MOV     R6,A
//  488   (void)shift;  // Intentionally unreferenced parameter
//  489   
//  490   if ( keys & HAL_KEY_SW_1 )
        MOV     C,0xE0 /* A   */.0
        JNC     ??SampleApp_HandleKeys_0
//  491   {
//  492     /* This key sends the Flash Command is sent to Group 1.
//  493      * This device will not receive the Flash Command from this
//  494      * device (even if it belongs to group 1).
//  495      */
//  496     SampleApp_SendFlashMessage( SAMPLEAPP_FLASH_DURATION );
        ; Setup parameters for call to function SampleApp_SendFlashMessage
        MOV     R2,#-0x18
        MOV     R3,#0x3
        LCALL   ??SampleApp_SendFlashMessage?relay
//  497   }
//  498 
//  499   if ( keys & HAL_KEY_SW_2 )
??SampleApp_HandleKeys_0:
        MOV     A,R6
        MOV     C,0xE0 /* A   */.1
        JNC     ??SampleApp_HandleKeys_1
//  500   {
//  501     /* The Flashr Command is sent to Group 1.
//  502      * This key toggles this device in and out of group 1.
//  503      * If this device doesn't belong to group 1, this application
//  504      * will not receive the Flash command sent to group 1.
//  505      */
//  506     aps_Group_t *grp;
//  507     grp = aps_FindGroup( SAMPLEAPP_ENDPOINT, SAMPLEAPP_FLASH_GROUP );
//  508     if ( grp )
        ; Setup parameters for call to function aps_FindGroup
        MOV     R2,#0x1
        MOV     R3,#0x0
        MOV     R1,#0x14
        LCALL   ??aps_FindGroup?relay
        MOV     ?V0 + 1,R3
        MOV     A,R2
        ORL     A,?V0 + 1
        JZ      ??SampleApp_HandleKeys_2
//  509     {
//  510       // Remove from the group
//  511       aps_RemoveGroup( SAMPLEAPP_ENDPOINT, SAMPLEAPP_FLASH_GROUP );
        ; Setup parameters for call to function aps_RemoveGroup
        MOV     R2,#0x1
        MOV     R3,#0x0
        MOV     R1,#0x14
        LCALL   ??aps_RemoveGroup?relay
        SJMP    ??SampleApp_HandleKeys_1
//  512     }
//  513     else
//  514     {
//  515       // Add to the flash group
//  516       aps_AddGroup( SAMPLEAPP_ENDPOINT, &SampleApp_Group );
??SampleApp_HandleKeys_2:
        ; Setup parameters for call to function aps_AddGroup
        MOV     R2,#SampleApp_Group & 0xff
        MOV     R3,#(SampleApp_Group >> 8) & 0xff
        MOV     R1,#0x14
        LCALL   ??aps_AddGroup?relay
//  517     }
//  518   }
//  519 }
??SampleApp_HandleKeys_1:
        SJMP    ??Subroutine10_0
        CFI EndBlock cfiBlock6

        RSEG BANKED_CODE:CODE:NOROOT(0)
?Subroutine1:
        CFI Block cfiBlock7 Using cfiCommon0
        CFI NoFunction
        CFI CFA_SP SP+0
        CFI CFA_XSP16 add(XSP16, 19)
        CFI VB load(1, XDATA, add(CFA_XSP16, literal(-9)))
        CFI DPL0 load(1, XDATA, add(CFA_XSP16, literal(-2)))
        CFI DPH0 load(1, XDATA, add(CFA_XSP16, literal(-1)))
        CFI R6 load(1, XDATA, add(CFA_XSP16, literal(-10)))
        CFI R7 load(1, XDATA, add(CFA_XSP16, literal(-6)))
        CFI V0 load(1, XDATA, add(CFA_XSP16, literal(-8)))
        CFI V1 load(1, XDATA, add(CFA_XSP16, literal(-7)))
        CFI ?BRET_EXT load(1, XDATA, add(CFA_XSP16, literal(-3)))
        CFI ?RET_HIGH load(1, XDATA, add(CFA_XSP16, literal(-4)))
        CFI ?RET_LOW load(1, XDATA, add(CFA_XSP16, literal(-5)))
        CFI Invalid
        LCALL   ?DEALLOC_XSTACK8
        CFI EndBlock cfiBlock7
        REQUIRE ??Subroutine10_0
        ; // Fall through to label ??Subroutine10_0

        RSEG BANKED_CODE:CODE:NOROOT(0)
??Subroutine10_0:
        CFI Block cfiBlock8 Using cfiCommon0
        CFI NoFunction
        CFI CFA_SP SP+0
        CFI CFA_XSP16 add(XSP16, 10)
        CFI VB load(1, XDATA, add(CFA_XSP16, literal(-9)))
        CFI DPL0 load(1, XDATA, add(CFA_XSP16, literal(-2)))
        CFI DPH0 load(1, XDATA, add(CFA_XSP16, literal(-1)))
        CFI R6 load(1, XDATA, add(CFA_XSP16, literal(-10)))
        CFI R7 load(1, XDATA, add(CFA_XSP16, literal(-6)))
        CFI V0 load(1, XDATA, add(CFA_XSP16, literal(-8)))
        CFI V1 load(1, XDATA, add(CFA_XSP16, literal(-7)))
        CFI ?BRET_EXT load(1, XDATA, add(CFA_XSP16, literal(-3)))
        CFI ?RET_HIGH load(1, XDATA, add(CFA_XSP16, literal(-4)))
        CFI ?RET_LOW load(1, XDATA, add(CFA_XSP16, literal(-5)))
        MOV     R7,#0x2
        LJMP    ?BANKED_LEAVE_XDATA
        CFI EndBlock cfiBlock8
//  520 
//  521 /*********************************************************************
//  522  * LOCAL FUNCTIONS
//  523  */
//  524 
//  525 /*********************************************************************
//  526  * @fn      SampleApp_MessageMSGCB
//  527  *
//  528  * @brief   Data message processor callback.  This function processes
//  529  *          any incoming data - probably from other devices.  So, based
//  530  *          on cluster ID, perform the intended action.
//  531  *
//  532  * @param   none
//  533  *
//  534  * @return  none
//  535  */

        RSEG BANKED_CODE:CODE:NOROOT(0)
//  536 void SampleApp_MessageMSGCB( afIncomingMSGPacket_t *pkt )
SampleApp_MessageMSGCB:
        CFI Block cfiBlock9 Using cfiCommon0
        CFI Function SampleApp_MessageMSGCB
        CODE
//  537 {
        FUNCALL SampleApp_MessageMSGCB, HalUARTWrite
        LOCFRAME ISTACK, 0, STACK
        LOCFRAME PSTACK, 0, STACK
        LOCFRAME XSTACK, 10, STACK
        LOCFRAME IOVERLAY, 0, STATIC
        LOCFRAME DOVERLAY, 0, STATIC
        ARGFRAME ISTACK, 0, STACK
        ARGFRAME PSTACK, 0, STACK
        ARGFRAME XSTACK, 10, STACK
        ARGFRAME IOVERLAY, 0, STATIC
        ARGFRAME DOVERLAY, 0, STATIC
        FUNCALL SampleApp_MessageMSGCB, HalUARTWrite
        LOCFRAME ISTACK, 0, STACK
        LOCFRAME PSTACK, 0, STACK
        LOCFRAME XSTACK, 10, STACK
        LOCFRAME IOVERLAY, 0, STATIC
        LOCFRAME DOVERLAY, 0, STATIC
        ARGFRAME ISTACK, 0, STACK
        ARGFRAME PSTACK, 0, STACK
        ARGFRAME XSTACK, 10, STACK
        ARGFRAME IOVERLAY, 0, STATIC
        ARGFRAME DOVERLAY, 0, STATIC
        FUNCALL SampleApp_MessageMSGCB, HalUARTWrite
        LOCFRAME ISTACK, 0, STACK
        LOCFRAME PSTACK, 0, STACK
        LOCFRAME XSTACK, 10, STACK
        LOCFRAME IOVERLAY, 0, STATIC
        LOCFRAME DOVERLAY, 0, STATIC
        ARGFRAME ISTACK, 0, STACK
        ARGFRAME PSTACK, 0, STACK
        ARGFRAME XSTACK, 10, STACK
        ARGFRAME IOVERLAY, 0, STATIC
        ARGFRAME DOVERLAY, 0, STATIC
        FUNCALL SampleApp_MessageMSGCB, HalUARTWrite
        LOCFRAME ISTACK, 0, STACK
        LOCFRAME PSTACK, 0, STACK
        LOCFRAME XSTACK, 10, STACK
        LOCFRAME IOVERLAY, 0, STATIC
        LOCFRAME DOVERLAY, 0, STATIC
        ARGFRAME ISTACK, 0, STACK
        ARGFRAME PSTACK, 0, STACK
        ARGFRAME XSTACK, 10, STACK
        ARGFRAME IOVERLAY, 0, STATIC
        ARGFRAME DOVERLAY, 0, STATIC
        FUNCALL SampleApp_MessageMSGCB, HalUARTWrite
        LOCFRAME ISTACK, 0, STACK
        LOCFRAME PSTACK, 0, STACK
        LOCFRAME XSTACK, 10, STACK
        LOCFRAME IOVERLAY, 0, STATIC
        LOCFRAME DOVERLAY, 0, STATIC
        ARGFRAME ISTACK, 0, STACK
        ARGFRAME PSTACK, 0, STACK
        ARGFRAME XSTACK, 10, STACK
        ARGFRAME IOVERLAY, 0, STATIC
        ARGFRAME DOVERLAY, 0, STATIC
        FUNCALL SampleApp_MessageMSGCB, HalUARTWrite
        LOCFRAME ISTACK, 0, STACK
        LOCFRAME PSTACK, 0, STACK
        LOCFRAME XSTACK, 10, STACK
        LOCFRAME IOVERLAY, 0, STATIC
        LOCFRAME DOVERLAY, 0, STATIC
        ARGFRAME ISTACK, 0, STACK
        ARGFRAME PSTACK, 0, STACK
        ARGFRAME XSTACK, 10, STACK
        ARGFRAME IOVERLAY, 0, STATIC
        ARGFRAME DOVERLAY, 0, STATIC
        FUNCALL SampleApp_MessageMSGCB, HalUARTWrite
        LOCFRAME ISTACK, 0, STACK
        LOCFRAME PSTACK, 0, STACK
        LOCFRAME XSTACK, 10, STACK
        LOCFRAME IOVERLAY, 0, STATIC
        LOCFRAME DOVERLAY, 0, STATIC
        ARGFRAME ISTACK, 0, STACK
        ARGFRAME PSTACK, 0, STACK
        ARGFRAME XSTACK, 10, STACK
        ARGFRAME IOVERLAY, 0, STATIC
        ARGFRAME DOVERLAY, 0, STATIC
        FUNCALL SampleApp_MessageMSGCB, HalUARTWrite
        LOCFRAME ISTACK, 0, STACK
        LOCFRAME PSTACK, 0, STACK
        LOCFRAME XSTACK, 10, STACK
        LOCFRAME IOVERLAY, 0, STATIC
        LOCFRAME DOVERLAY, 0, STATIC
        ARGFRAME ISTACK, 0, STACK
        ARGFRAME PSTACK, 0, STACK
        ARGFRAME XSTACK, 10, STACK
        ARGFRAME IOVERLAY, 0, STATIC
        ARGFRAME DOVERLAY, 0, STATIC
        FUNCALL SampleApp_MessageMSGCB, HalUARTWrite
        LOCFRAME ISTACK, 0, STACK
        LOCFRAME PSTACK, 0, STACK
        LOCFRAME XSTACK, 10, STACK
        LOCFRAME IOVERLAY, 0, STATIC
        LOCFRAME DOVERLAY, 0, STATIC
        ARGFRAME ISTACK, 0, STACK
        ARGFRAME PSTACK, 0, STACK
        ARGFRAME XSTACK, 10, STACK
        ARGFRAME IOVERLAY, 0, STATIC
        ARGFRAME DOVERLAY, 0, STATIC
        FUNCALL SampleApp_MessageMSGCB, HalUARTWrite
        LOCFRAME ISTACK, 0, STACK
        LOCFRAME PSTACK, 0, STACK
        LOCFRAME XSTACK, 10, STACK
        LOCFRAME IOVERLAY, 0, STATIC
        LOCFRAME DOVERLAY, 0, STATIC
        ARGFRAME ISTACK, 0, STACK
        ARGFRAME PSTACK, 0, STACK
        ARGFRAME XSTACK, 10, STACK
        ARGFRAME IOVERLAY, 0, STATIC
        ARGFRAME DOVERLAY, 0, STATIC
        FUNCALL SampleApp_MessageMSGCB, HalLedBlink
        LOCFRAME ISTACK, 0, STACK
        LOCFRAME PSTACK, 0, STACK
        LOCFRAME XSTACK, 10, STACK
        LOCFRAME IOVERLAY, 0, STATIC
        LOCFRAME DOVERLAY, 0, STATIC
        ARGFRAME ISTACK, 0, STACK
        ARGFRAME PSTACK, 0, STACK
        ARGFRAME XSTACK, 10, STACK
        ARGFRAME IOVERLAY, 0, STATIC
        ARGFRAME DOVERLAY, 0, STATIC
        MOV     A,#-0xa
        LCALL   ?BANKED_ENTER_XDATA
        CFI DPH0 load(1, XDATA, add(CFA_XSP16, literal(-1)))
        CFI DPL0 load(1, XDATA, add(CFA_XSP16, literal(-2)))
        CFI ?BRET_EXT load(1, XDATA, add(CFA_XSP16, literal(-3)))
        CFI ?RET_HIGH load(1, XDATA, add(CFA_XSP16, literal(-4)))
        CFI ?RET_LOW load(1, XDATA, add(CFA_XSP16, literal(-5)))
        CFI R7 load(1, XDATA, add(CFA_XSP16, literal(-6)))
        CFI V1 load(1, XDATA, add(CFA_XSP16, literal(-7)))
        CFI V0 load(1, XDATA, add(CFA_XSP16, literal(-8)))
        CFI VB load(1, XDATA, add(CFA_XSP16, literal(-9)))
        CFI R6 load(1, XDATA, add(CFA_XSP16, literal(-10)))
        CFI CFA_SP SP+0
        CFI CFA_XSP16 add(XSP16, 10)
        ; Saved register size: 10
        ; Auto size: 0
        MOV     A,R2
        MOV     R6,A
        MOV     A,R3
        MOV     R7,A
//  538   uint16 flashTime;
//  539   byte * test;
//  540   int wdVar,qtVar;
//  541 
//  542   switch ( pkt->clusterId )
        MOV     DPL,R6
        MOV     DPH,R7
        INC     DPTR
        INC     DPTR
        INC     DPTR
        INC     DPTR
        MOVX    A,@DPTR
        MOV     ?V0 + 0,A
        INC     DPTR
        MOVX    A,@DPTR
        MOV     ?V0 + 1,A
        MOV     R0,#?V0 + 0
        LCALL   ?US_SWITCH_DENSE
`?<Jumptable for SampleApp_MessageMSGCB>_0`:
        DATA
        DATA16
        DATA
        DATA16
        DW        2
        DATA
        DATA8
        DATA
        DATA8
        DB        1
        DATA
        DATA16
        DATA
        DATA16
        DW        ??SampleApp_MessageMSGCB_0
        DATA
        DATA16
        DATA
        DATA16
        DW        ??SampleApp_MessageMSGCB_1
        DATA
        DATA16
        DATA
        DATA16
        DW        ??SampleApp_MessageMSGCB_2
        CODE
//  543   {
//  544     case SAMPLEAPP_P2P_CLUSTERID:
//  545       test=pkt->cmd.Data;
??SampleApp_MessageMSGCB_2:
        LCALL   ?Subroutine4 & 0xFFFF
??CrossCallReturnLabel_13:
        MOV     ?V0 + 0,A
        INC     DPTR
        MOVX    A,@DPTR
        MOV     ?V0 + 1,A
//  546       if(pkt->cmd.DataLength==6)
        MOV     A,R6
        ADD     A,#0x20
        LCALL   ??Subroutine11_0 & 0xFFFF
??CrossCallReturnLabel_11:
        XRL     A,#0x6
        JNZ     ??SampleApp_MessageMSGCB_3
        INC     DPTR
        MOVX    A,@DPTR
??SampleApp_MessageMSGCB_3:
        JNZ     ??SampleApp_MessageMSGCB_4
//  547       {
//  548         HalUARTWrite(0, "T&H:", 4);//提示接收到数据
        ; Setup parameters for call to function HalUARTWrite
        MOV     R4,#0x4
        MOV     R5,#0x0
        MOV     R2,#`?<Constant "T&H:">` & 0xff
        MOV     R3,#(`?<Constant "T&H:">` >> 8) & 0xff
        LCALL   ?Subroutine2 & 0xFFFF
//  549         HalUARTWrite(0, pkt->cmd.Data, pkt->cmd.DataLength);//输出接收到的数据
//  550         HalUARTWrite(0, "\n", 1);// 回车换行
//  551         wdVar=(test[0]-48)*10+(test[1]-48);
//  552         //UartSendString(test,2);
//  553         //osal_memcpy(test,pkt->cmd.Data,3); 
//  554         //UartSendString(test,3);
//  555         if(wdVar>30)
??CrossCallReturnLabel_0:
        MOV     B,#0xa
        MUL     AB
        MOV     R0,A
        INC     DPTR
        MOVX    A,@DPTR
        MOV     R2,A
        MOV     A,R0
        ADD     A,R2
        MOV     R0,A
        MOV     A,B
        ADDC    A,#0x0
        MOV     R1,A
        MOV     A,R0
        ADD     A,#-0x10
        MOV     R0,A
        MOV     A,R1
        ADDC    A,#-0x3
        MOV     R1,A
        CLR     C
        MOV     A,R0
        SUBB    A,#0x1f
        MOV     A,R1
        SUBB    A,#0x0
        MOV     C,0xD0 /* PSW */.2
        XRL     A,PSW
        RLC     A
        JC      ??SampleApp_MessageMSGCB_5
//  556         {
//  557           P1_1=1;
        SETB    0x90.1
//  558           //LEDW_PIN=1;
//  559           //FMQ_PIN=1;
//  560           HalUARTWrite(0, "Abnormal temperature",21);
        ; Setup parameters for call to function HalUARTWrite
        MOV     R4,#0x15
        MOV     R5,#0x0
        MOV     R2,#`?<Constant "Abnormal temperature">` & 0xff
        MOV     R3,#(`?<Constant "Abnormal temperature">` >> 8) & 0xff
        LCALL   ?Subroutine5 & 0xFFFF
//  561           HalUARTWrite(0, "\n", 1); // 回车换行
//  562         }
??CrossCallReturnLabel_4:
        SJMP    ??SampleApp_MessageMSGCB_4
//  563         else
//  564         {
//  565           P1_1=0;
??SampleApp_MessageMSGCB_5:
        CLR     0x90.1
//  566           //LEDW_PIN=0;
//  567           //FMQ_PIN=0;
//  568         }
//  569       }
//  570       if(pkt->cmd.DataLength==5)
??SampleApp_MessageMSGCB_4:
        MOV     A,R6
        ADD     A,#0x20
        LCALL   ??Subroutine11_0 & 0xFFFF
??CrossCallReturnLabel_12:
        XRL     A,#0x5
        JNZ     ??SampleApp_MessageMSGCB_6
        INC     DPTR
        MOVX    A,@DPTR
??SampleApp_MessageMSGCB_6:
        JZ      $+5
        LJMP    ??SampleApp_MessageMSGCB_0 & 0xFFFF
//  571       {
//  572         HalUARTWrite(0, "MQ2:", 4); //提示接收到数据
        ; Setup parameters for call to function HalUARTWrite
        MOV     R4,#0x4
        MOV     R5,#0x0
        MOV     R2,#`?<Constant "MQ2:">` & 0xff
        MOV     R3,#(`?<Constant "MQ2:">` >> 8) & 0xff
        LCALL   ?Subroutine2 & 0xFFFF
//  573         HalUARTWrite(0, pkt->cmd.Data, pkt->cmd.DataLength); //输出接收到的数据
//  574         HalUARTWrite(0, "\n", 1); // 回车换行
//  575         qtVar=(test[0]-48)*100+(test[1]-48)*10+(test[2]-48);
//  576          //UartSendString(test,3);
//  577         //osal_memcpy(test,pkt->cmd.Data,3); 
//  578         //UartSendString(test,3);
//  579         if(qtVar>40)
??CrossCallReturnLabel_1:
        MOV     B,#0x64
        MUL     AB
        MOV     R0,A
        MOV     R1,B
        INC     DPTR
        MOVX    A,@DPTR
        MOV     B,#0xa
        MUL     AB
        MOV     R2,A
        MOV     R3,B
        MOV     A,R0
        ADD     A,R2
        MOV     R0,A
        MOV     A,R1
        ADDC    A,R3
        MOV     R1,A
        MOV     DPL,?V0 + 0
        MOV     DPH,?V0 + 1
        INC     DPTR
        INC     DPTR
        MOVX    A,@DPTR
        MOV     R2,A
        MOV     A,R0
        ADD     A,R2
        MOV     R0,A
        MOV     A,R1
        ADDC    A,#0x0
        MOV     R1,A
        MOV     A,R0
        ADD     A,#0x30
        MOV     R0,A
        MOV     A,R1
        ADDC    A,#-0x15
        MOV     R1,A
        CLR     C
        MOV     A,R0
        SUBB    A,#0x29
        MOV     A,R1
        SUBB    A,#0x0
        MOV     C,0xD0 /* PSW */.2
        XRL     A,PSW
        RLC     A
        JC      ??SampleApp_MessageMSGCB_7
//  580         {
//  581           P1_0=1;
        SETB    0x90.0
//  582           //LEDQ_PIN=1;
//  583           //FMQ_PIN=1;
//  584           HalUARTWrite(0, "Gas anomaly",12);
        ; Setup parameters for call to function HalUARTWrite
        MOV     R4,#0xc
        MOV     R5,#0x0
        MOV     R2,#`?<Constant "Gas anomaly">` & 0xff
        MOV     R3,#(`?<Constant "Gas anomaly">` >> 8) & 0xff
        LCALL   ?Subroutine5 & 0xFFFF
//  585           HalUARTWrite(0, "\n", 1); // 回车换行
//  586         }
??CrossCallReturnLabel_5:
        SJMP    ??SampleApp_MessageMSGCB_0
//  587         else
//  588         {
//  589           P1_0=0;
??SampleApp_MessageMSGCB_7:
        CLR     0x90.0
        SJMP    ??SampleApp_MessageMSGCB_0
//  590           //LEDQ_PIN=0;
//  591           //FMQ_PIN=0;
//  592         }
//  593        
//  594       }
??SampleApp_MessageMSGCB_1:
        LCALL   ?Subroutine4 & 0xFFFF
??CrossCallReturnLabel_14:
        MOV     R0,A
        INC     DPTR
        MOVX    A,@DPTR
        MOV     R1,A
        ; Setup parameters for call to function HalLedBlink
        MOV     DPL,R0
        MOV     DPH,R1
        INC     DPTR
        MOVX    A,@DPTR
        MOV     R2,A
        MOV     DPL,R0
        MOV     DPH,R1
        INC     DPTR
        INC     DPTR
        MOVX    A,@DPTR
        MOV     R1,A
        MOV     A,R2
        ADD     A,#0x0
        MOV     ?V0 + 0,A
        CLR     A
        ADDC    A,R1
        MOV     ?V0 + 1,A
        MOV     A,#0x2
        MOV     R0,#?V0 + 0
        LCALL   ?US_SHR
        MOV     R4,?V0 + 0
        MOV     R5,?V0 + 1
        MOV     R3,#0x32
        MOV     R2,#0x4
        MOV     R1,#0x8
//  595       break;    
//  596     case SAMPLEAPP_PERIODIC_CLUSTERID:
//  597       break;
//  598 
//  599     case SAMPLEAPP_FLASH_CLUSTERID:
//  600       flashTime = BUILD_UINT16(pkt->cmd.Data[1], pkt->cmd.Data[2] );
//  601       HalLedBlink( HAL_LED_4, 4, 50, (flashTime / 4) );
        LCALL   ??HalLedBlink?relay
//  602       break;
//  603   }
//  604 }
??SampleApp_MessageMSGCB_0:
        LJMP    ??Subroutine10_0 & 0xFFFF
        CFI EndBlock cfiBlock9
        REQUIRE _A_P1

        RSEG BANKED_CODE:CODE:NOROOT(0)
?Subroutine4:
        CFI Block cfiCond10 Using cfiCommon0
        CFI NoFunction
        CFI Conditional ??CrossCallReturnLabel_13
        CFI R6 load(1, XDATA, add(CFA_XSP16, literal(-10)))
        CFI VB load(1, XDATA, add(CFA_XSP16, literal(-9)))
        CFI V0 load(1, XDATA, add(CFA_XSP16, literal(-8)))
        CFI V1 load(1, XDATA, add(CFA_XSP16, literal(-7)))
        CFI R7 load(1, XDATA, add(CFA_XSP16, literal(-6)))
        CFI ?RET_LOW load(1, XDATA, add(CFA_XSP16, literal(-5)))
        CFI ?RET_HIGH load(1, XDATA, add(CFA_XSP16, literal(-4)))
        CFI ?BRET_EXT load(1, XDATA, add(CFA_XSP16, literal(-3)))
        CFI DPL0 load(1, XDATA, add(CFA_XSP16, literal(-2)))
        CFI DPH0 load(1, XDATA, add(CFA_XSP16, literal(-1)))
        CFI CFA_SP SP+0
        CFI CFA_XSP16 add(XSP16, 10)
        CFI Block cfiCond11 Using cfiCommon0
        CFI (cfiCond11) NoFunction
        CFI (cfiCond11) Conditional ??CrossCallReturnLabel_14
        CFI (cfiCond11) R6 load(1, XDATA, add(CFA_XSP16, literal(-10)))
        CFI (cfiCond11) VB load(1, XDATA, add(CFA_XSP16, literal(-9)))
        CFI (cfiCond11) V0 load(1, XDATA, add(CFA_XSP16, literal(-8)))
        CFI (cfiCond11) V1 load(1, XDATA, add(CFA_XSP16, literal(-7)))
        CFI (cfiCond11) R7 load(1, XDATA, add(CFA_XSP16, literal(-6)))
        CFI (cfiCond11) ?RET_LOW load(1, XDATA, add(CFA_XSP16, literal(-5)))
        CFI (cfiCond11) ?RET_HIGH load(1, XDATA, add(CFA_XSP16, literal(-4)))
        CFI (cfiCond11) ?BRET_EXT load(1, XDATA, add(CFA_XSP16, literal(-3)))
        CFI (cfiCond11) DPL0 load(1, XDATA, add(CFA_XSP16, literal(-2)))
        CFI (cfiCond11) DPH0 load(1, XDATA, add(CFA_XSP16, literal(-1)))
        CFI (cfiCond11) CFA_SP SP+0
        CFI (cfiCond11) CFA_XSP16 add(XSP16, 10)
        CFI Block cfiPicker12 Using cfiCommon1
        CFI (cfiPicker12) NoFunction
        CFI (cfiPicker12) Picker
        MOV     A,R6
        ADD     A,#0x22
        CFI EndBlock cfiCond10
        CFI EndBlock cfiCond11
        CFI EndBlock cfiPicker12
        REQUIRE ??Subroutine11_0
        ; // Fall through to label ??Subroutine11_0

        RSEG BANKED_CODE:CODE:NOROOT(0)
??Subroutine11_0:
        CFI Block cfiCond13 Using cfiCommon0
        CFI NoFunction
        CFI Conditional ??CrossCallReturnLabel_11
        CFI R6 load(1, XDATA, add(CFA_XSP16, literal(-10)))
        CFI VB load(1, XDATA, add(CFA_XSP16, literal(-9)))
        CFI V0 load(1, XDATA, add(CFA_XSP16, literal(-8)))
        CFI V1 load(1, XDATA, add(CFA_XSP16, literal(-7)))
        CFI R7 load(1, XDATA, add(CFA_XSP16, literal(-6)))
        CFI ?RET_LOW load(1, XDATA, add(CFA_XSP16, literal(-5)))
        CFI ?RET_HIGH load(1, XDATA, add(CFA_XSP16, literal(-4)))
        CFI ?BRET_EXT load(1, XDATA, add(CFA_XSP16, literal(-3)))
        CFI DPL0 load(1, XDATA, add(CFA_XSP16, literal(-2)))
        CFI DPH0 load(1, XDATA, add(CFA_XSP16, literal(-1)))
        CFI CFA_SP SP+0
        CFI CFA_XSP16 add(XSP16, 10)
        CFI Block cfiCond14 Using cfiCommon0
        CFI (cfiCond14) NoFunction
        CFI (cfiCond14) Conditional ??CrossCallReturnLabel_12
        CFI (cfiCond14) R6 load(1, XDATA, add(CFA_XSP16, literal(-10)))
        CFI (cfiCond14) VB load(1, XDATA, add(CFA_XSP16, literal(-9)))
        CFI (cfiCond14) V0 load(1, XDATA, add(CFA_XSP16, literal(-8)))
        CFI (cfiCond14) V1 load(1, XDATA, add(CFA_XSP16, literal(-7)))
        CFI (cfiCond14) R7 load(1, XDATA, add(CFA_XSP16, literal(-6)))
        CFI (cfiCond14) ?RET_LOW load(1, XDATA, add(CFA_XSP16, literal(-5)))
        CFI (cfiCond14) ?RET_HIGH load(1, XDATA, add(CFA_XSP16, literal(-4)))
        CFI (cfiCond14) ?BRET_EXT load(1, XDATA, add(CFA_XSP16, literal(-3)))
        CFI (cfiCond14) DPL0 load(1, XDATA, add(CFA_XSP16, literal(-2)))
        CFI (cfiCond14) DPH0 load(1, XDATA, add(CFA_XSP16, literal(-1)))
        CFI (cfiCond14) CFA_SP SP+0
        CFI (cfiCond14) CFA_XSP16 add(XSP16, 10)
        CFI Block cfiCond15 Using cfiCommon0
        CFI (cfiCond15) NoFunction
        CFI (cfiCond15) Conditional ??CrossCallReturnLabel_13
        CFI (cfiCond15) R6 load(1, XDATA, add(CFA_XSP16, literal(-10)))
        CFI (cfiCond15) VB load(1, XDATA, add(CFA_XSP16, literal(-9)))
        CFI (cfiCond15) V0 load(1, XDATA, add(CFA_XSP16, literal(-8)))
        CFI (cfiCond15) V1 load(1, XDATA, add(CFA_XSP16, literal(-7)))
        CFI (cfiCond15) R7 load(1, XDATA, add(CFA_XSP16, literal(-6)))
        CFI (cfiCond15) ?RET_LOW load(1, XDATA, add(CFA_XSP16, literal(-5)))
        CFI (cfiCond15) ?RET_HIGH load(1, XDATA, add(CFA_XSP16, literal(-4)))
        CFI (cfiCond15) ?BRET_EXT load(1, XDATA, add(CFA_XSP16, literal(-3)))
        CFI (cfiCond15) DPL0 load(1, XDATA, add(CFA_XSP16, literal(-2)))
        CFI (cfiCond15) DPH0 load(1, XDATA, add(CFA_XSP16, literal(-1)))
        CFI (cfiCond15) CFA_SP SP+0
        CFI (cfiCond15) CFA_XSP16 add(XSP16, 10)
        CFI Block cfiCond16 Using cfiCommon0
        CFI (cfiCond16) NoFunction
        CFI (cfiCond16) Conditional ??CrossCallReturnLabel_14
        CFI (cfiCond16) R6 load(1, XDATA, add(CFA_XSP16, literal(-10)))
        CFI (cfiCond16) VB load(1, XDATA, add(CFA_XSP16, literal(-9)))
        CFI (cfiCond16) V0 load(1, XDATA, add(CFA_XSP16, literal(-8)))
        CFI (cfiCond16) V1 load(1, XDATA, add(CFA_XSP16, literal(-7)))
        CFI (cfiCond16) R7 load(1, XDATA, add(CFA_XSP16, literal(-6)))
        CFI (cfiCond16) ?RET_LOW load(1, XDATA, add(CFA_XSP16, literal(-5)))
        CFI (cfiCond16) ?RET_HIGH load(1, XDATA, add(CFA_XSP16, literal(-4)))
        CFI (cfiCond16) ?BRET_EXT load(1, XDATA, add(CFA_XSP16, literal(-3)))
        CFI (cfiCond16) DPL0 load(1, XDATA, add(CFA_XSP16, literal(-2)))
        CFI (cfiCond16) DPH0 load(1, XDATA, add(CFA_XSP16, literal(-1)))
        CFI (cfiCond16) CFA_SP SP+0
        CFI (cfiCond16) CFA_XSP16 add(XSP16, 10)
        CFI Block cfiPicker17 Using cfiCommon1
        CFI (cfiPicker17) NoFunction
        CFI (cfiPicker17) Picker
        MOV     DPL,A
        MOV     A,R7
        ADDC    A,#0x0
        MOV     DPH,A
        MOVX    A,@DPTR
        RET
        CFI EndBlock cfiCond13
        CFI EndBlock cfiCond14
        CFI EndBlock cfiCond15
        CFI EndBlock cfiCond16
        CFI EndBlock cfiPicker17

        RSEG BANKED_CODE:CODE:NOROOT(0)
?Subroutine2:
        CFI Block cfiCond18 Using cfiCommon0
        CFI NoFunction
        CFI Conditional ??CrossCallReturnLabel_0
        CFI R6 load(1, XDATA, add(CFA_XSP16, literal(-10)))
        CFI VB load(1, XDATA, add(CFA_XSP16, literal(-9)))
        CFI V0 load(1, XDATA, add(CFA_XSP16, literal(-8)))
        CFI V1 load(1, XDATA, add(CFA_XSP16, literal(-7)))
        CFI R7 load(1, XDATA, add(CFA_XSP16, literal(-6)))
        CFI ?RET_LOW load(1, XDATA, add(CFA_XSP16, literal(-5)))
        CFI ?RET_HIGH load(1, XDATA, add(CFA_XSP16, literal(-4)))
        CFI ?BRET_EXT load(1, XDATA, add(CFA_XSP16, literal(-3)))
        CFI DPL0 load(1, XDATA, add(CFA_XSP16, literal(-2)))
        CFI DPH0 load(1, XDATA, add(CFA_XSP16, literal(-1)))
        CFI CFA_SP SP+0
        CFI CFA_XSP16 add(XSP16, 10)
        CFI Block cfiCond19 Using cfiCommon0
        CFI (cfiCond19) NoFunction
        CFI (cfiCond19) Conditional ??CrossCallReturnLabel_1
        CFI (cfiCond19) R6 load(1, XDATA, add(CFA_XSP16, literal(-10)))
        CFI (cfiCond19) VB load(1, XDATA, add(CFA_XSP16, literal(-9)))
        CFI (cfiCond19) V0 load(1, XDATA, add(CFA_XSP16, literal(-8)))
        CFI (cfiCond19) V1 load(1, XDATA, add(CFA_XSP16, literal(-7)))
        CFI (cfiCond19) R7 load(1, XDATA, add(CFA_XSP16, literal(-6)))
        CFI (cfiCond19) ?RET_LOW load(1, XDATA, add(CFA_XSP16, literal(-5)))
        CFI (cfiCond19) ?RET_HIGH load(1, XDATA, add(CFA_XSP16, literal(-4)))
        CFI (cfiCond19) ?BRET_EXT load(1, XDATA, add(CFA_XSP16, literal(-3)))
        CFI (cfiCond19) DPL0 load(1, XDATA, add(CFA_XSP16, literal(-2)))
        CFI (cfiCond19) DPH0 load(1, XDATA, add(CFA_XSP16, literal(-1)))
        CFI (cfiCond19) CFA_SP SP+0
        CFI (cfiCond19) CFA_XSP16 add(XSP16, 10)
        CFI Block cfiPicker20 Using cfiCommon1
        CFI (cfiPicker20) NoFunction
        CFI (cfiPicker20) Picker
        MOV     R1,#0x0
        LCALL   ??HalUARTWrite?relay
        ; Setup parameters for call to function HalUARTWrite
        ; Setup parameters for call to function HalUARTWrite
        MOV     A,R6
        ADD     A,#0x20
        MOV     DPL,A
        MOV     A,R7
        ADDC    A,#0x0
        MOV     DPH,A
        MOVX    A,@DPTR
        MOV     R4,A
        INC     DPTR
        MOVX    A,@DPTR
        MOV     R5,A
        MOV     A,R6
        ADD     A,#0x22
        MOV     DPL,A
        MOV     A,R7
        ADDC    A,#0x0
        MOV     DPH,A
        MOVX    A,@DPTR
        MOV     R2,A
        INC     DPTR
        MOVX    A,@DPTR
        MOV     R3,A
        LCALL   ?Subroutine9 & 0xFFFF
??CrossCallReturnLabel_9:
        MOV     DPL,?V0 + 0
        MOV     DPH,?V0 + 1
        MOVX    A,@DPTR
        RET
        CFI EndBlock cfiCond18
        CFI EndBlock cfiCond19
        CFI EndBlock cfiPicker20
//  605 
//  606 /*********************************************************************
//  607  * @fn      SampleApp_SendPeriodicMessage
//  608  *
//  609  * @brief   Send the periodic message.
//  610  *
//  611  * @param   none
//  612  *
//  613  * @return  none
//  614  */

        RSEG BANKED_CODE:CODE:NOROOT(0)
//  615 void SampleApp_SendPeriodicMessage( void )
SampleApp_SendPeriodicMessage:
        CFI Block cfiBlock21 Using cfiCommon0
        CFI Function SampleApp_SendPeriodicMessage
        CODE
//  616 {
        FUNCALL SampleApp_SendPeriodicMessage, AF_DataRequest
        LOCFRAME ISTACK, 0, STACK
        LOCFRAME PSTACK, 0, STACK
        LOCFRAME XSTACK, 19, STACK
        LOCFRAME IOVERLAY, 0, STATIC
        LOCFRAME DOVERLAY, 0, STATIC
        ARGFRAME ISTACK, 0, STACK
        ARGFRAME PSTACK, 0, STACK
        ARGFRAME XSTACK, 19, STACK
        ARGFRAME IOVERLAY, 0, STATIC
        ARGFRAME DOVERLAY, 0, STATIC
        MOV     A,#-0xa
        LCALL   ?BANKED_ENTER_XDATA
        CFI DPH0 load(1, XDATA, add(CFA_XSP16, literal(-1)))
        CFI DPL0 load(1, XDATA, add(CFA_XSP16, literal(-2)))
        CFI ?BRET_EXT load(1, XDATA, add(CFA_XSP16, literal(-3)))
        CFI ?RET_HIGH load(1, XDATA, add(CFA_XSP16, literal(-4)))
        CFI ?RET_LOW load(1, XDATA, add(CFA_XSP16, literal(-5)))
        CFI R7 load(1, XDATA, add(CFA_XSP16, literal(-6)))
        CFI V1 load(1, XDATA, add(CFA_XSP16, literal(-7)))
        CFI V0 load(1, XDATA, add(CFA_XSP16, literal(-8)))
        CFI VB load(1, XDATA, add(CFA_XSP16, literal(-9)))
        CFI R6 load(1, XDATA, add(CFA_XSP16, literal(-10)))
        CFI CFA_SP SP+0
        CFI CFA_XSP16 add(XSP16, 10)
        ; Saved register size: 10
        ; Auto size: 0
//  617   if ( AF_DataRequest( &SampleApp_Periodic_DstAddr, &SampleApp_epDesc,
//  618                        SAMPLEAPP_PERIODIC_CLUSTERID,
//  619                        1,
//  620                        (uint8*)&SampleAppPeriodicCounter,
//  621                        &SampleApp_TransID,
//  622                        AF_DISCV_ROUTE,
//  623                        AF_DEFAULT_RADIUS ) == afStatus_SUCCESS )
        ; Setup parameters for call to function AF_DataRequest
        MOV     ?V0 + 0,#0x1e
        MOV     R0,#?V0 + 0
        LCALL   ?PUSH_XSTACK_I_ONE
        CFI CFA_XSP16 add(XSP16, 11)
        MOV     ?V0 + 0,#SampleApp_TransID & 0xff
        MOV     ?V0 + 1,#(SampleApp_TransID >> 8) & 0xff
        MOV     R0,#?V0 + 0
        LCALL   ?PUSH_XSTACK_I_TWO
        CFI CFA_XSP16 add(XSP16, 13)
        MOV     ?V0 + 0,#SampleAppPeriodicCounter & 0xff
        MOV     ?V0 + 1,#(SampleAppPeriodicCounter >> 8) & 0xff
        MOV     R0,#?V0 + 0
        LCALL   ?PUSH_XSTACK_I_TWO
        CFI CFA_XSP16 add(XSP16, 15)
        MOV     ?V0 + 0,#0x1
        MOV     ?V0 + 1,#0x0
        MOV     R0,#?V0 + 0
        LCALL   ?PUSH_XSTACK_I_TWO
        CFI CFA_XSP16 add(XSP16, 17)
        MOV     R0,#?V0 + 0
        LCALL   ?PUSH_XSTACK_I_TWO
        CFI CFA_XSP16 add(XSP16, 19)
        MOV     R1,#0x20
        MOV     R4,#SampleApp_epDesc & 0xff
        MOV     R5,#(SampleApp_epDesc >> 8) & 0xff
        MOV     R2,#SampleApp_Periodic_DstAddr & 0xff
        MOV     R3,#(SampleApp_Periodic_DstAddr >> 8) & 0xff
        LCALL   ??Subroutine12_0 & 0xFFFF
??CrossCallReturnLabel_17:
        LJMP    ?Subroutine1 & 0xFFFF
        CFI EndBlock cfiBlock21
//  624   {
//  625   }
//  626   else
//  627   {
//  628     // Error occurred in request to send.
//  629   }
//  630 }
//  631 
//  632 /*********************************************************************
//  633  * @fn      SampleApp_SendFlashMessage
//  634  *
//  635  * @brief   Send the flash message to group 1.
//  636  *
//  637  * @param   flashTime - in milliseconds
//  638  *
//  639  * @return  none
//  640  */

        RSEG BANKED_CODE:CODE:NOROOT(0)
//  641 void SampleApp_SendFlashMessage( uint16 flashTime )
SampleApp_SendFlashMessage:
        CFI Block cfiBlock22 Using cfiCommon0
        CFI Function SampleApp_SendFlashMessage
        CODE
//  642 {
        FUNCALL SampleApp_SendFlashMessage, AF_DataRequest
        LOCFRAME ISTACK, 0, STACK
        LOCFRAME PSTACK, 0, STACK
        LOCFRAME XSTACK, 22, STACK
        LOCFRAME IOVERLAY, 0, STATIC
        LOCFRAME DOVERLAY, 0, STATIC
        ARGFRAME ISTACK, 0, STACK
        ARGFRAME PSTACK, 0, STACK
        ARGFRAME XSTACK, 22, STACK
        ARGFRAME IOVERLAY, 0, STATIC
        ARGFRAME DOVERLAY, 0, STATIC
        MOV     A,#-0xa
        LCALL   ?BANKED_ENTER_XDATA
        CFI DPH0 load(1, XDATA, add(CFA_XSP16, literal(-1)))
        CFI DPL0 load(1, XDATA, add(CFA_XSP16, literal(-2)))
        CFI ?BRET_EXT load(1, XDATA, add(CFA_XSP16, literal(-3)))
        CFI ?RET_HIGH load(1, XDATA, add(CFA_XSP16, literal(-4)))
        CFI ?RET_LOW load(1, XDATA, add(CFA_XSP16, literal(-5)))
        CFI R7 load(1, XDATA, add(CFA_XSP16, literal(-6)))
        CFI V1 load(1, XDATA, add(CFA_XSP16, literal(-7)))
        CFI V0 load(1, XDATA, add(CFA_XSP16, literal(-8)))
        CFI VB load(1, XDATA, add(CFA_XSP16, literal(-9)))
        CFI R6 load(1, XDATA, add(CFA_XSP16, literal(-10)))
        CFI CFA_SP SP+0
        CFI CFA_XSP16 add(XSP16, 10)
        ; Saved register size: 10
        ; Auto size: 3
        MOV     A,#-0x3
        LCALL   ?ALLOC_XSTACK8
        CFI CFA_XSP16 add(XSP16, 13)
//  643   uint8 buffer[3];
//  644   buffer[0] = (uint8)(SampleAppFlashCounter++);
        MOV     DPTR,#SampleAppFlashCounter
        MOVX    A,@DPTR
        MOV     DPL,?XSP + 0
        MOV     DPH,?XSP + 1
        MOVX    @DPTR,A
        MOV     DPTR,#SampleAppFlashCounter
        MOVX    A,@DPTR
        INC     A
        MOVX    @DPTR,A
//  645   buffer[1] = LO_UINT16( flashTime );
        MOV     A,#0x1
        LCALL   ?XSTACK_DISP0_8
        MOV     A,R2
        MOVX    @DPTR,A
//  646   buffer[2] = HI_UINT16( flashTime );
        MOV     A,#0x2
        LCALL   ?XSTACK_DISP0_8
        MOV     A,R3
        MOVX    @DPTR,A
//  647 
//  648   if ( AF_DataRequest( &SampleApp_Flash_DstAddr, &SampleApp_epDesc,
//  649                        SAMPLEAPP_FLASH_CLUSTERID,
//  650                        3,
//  651                        buffer,
//  652                        &SampleApp_TransID,
//  653                        AF_DISCV_ROUTE,
//  654                        AF_DEFAULT_RADIUS ) == afStatus_SUCCESS )
        ; Setup parameters for call to function AF_DataRequest
        MOV     ?V0 + 0,#0x1e
        MOV     R0,#?V0 + 0
        LCALL   ?PUSH_XSTACK_I_ONE
        CFI CFA_XSP16 add(XSP16, 14)
        MOV     ?V0 + 0,#SampleApp_TransID & 0xff
        MOV     ?V0 + 1,#(SampleApp_TransID >> 8) & 0xff
        MOV     R0,#?V0 + 0
        LCALL   ?PUSH_XSTACK_I_TWO
        CFI CFA_XSP16 add(XSP16, 16)
        MOV     A,#0x3
        LCALL   ?XSTACK_DISP0_8
        MOV     ?V0 + 0,DPL
        MOV     ?V0 + 1,DPH
        MOV     R0,#?V0 + 0
        LCALL   ?PUSH_XSTACK_I_TWO
        CFI CFA_XSP16 add(XSP16, 18)
        MOV     ?V0 + 0,#0x3
        MOV     ?V0 + 1,#0x0
        MOV     R0,#?V0 + 0
        LCALL   ?PUSH_XSTACK_I_TWO
        CFI CFA_XSP16 add(XSP16, 20)
        MOV     ?V0 + 0,#0x2
        MOV     R0,#?V0 + 0
        LCALL   ?PUSH_XSTACK_I_TWO
        CFI CFA_XSP16 add(XSP16, 22)
        MOV     R1,#0x20
        MOV     R4,#SampleApp_epDesc & 0xff
        MOV     R5,#(SampleApp_epDesc >> 8) & 0xff
        MOV     R2,#SampleApp_Flash_DstAddr & 0xff
        MOV     R3,#(SampleApp_Flash_DstAddr >> 8) & 0xff
        LCALL   ??Subroutine12_0 & 0xFFFF
??CrossCallReturnLabel_18:
        LCALL   ?DEALLOC_XSTACK8
        CFI CFA_XSP16 add(XSP16, 13)
//  655   {
//  656   }
//  657   else
//  658   {
//  659     // Error occurred in request to send.
//  660   }
//  661 }
        MOV     A,#0x3
        LJMP    ?Subroutine1 & 0xFFFF
        CFI EndBlock cfiBlock22
//  662 
//  663 /*********************************************************************
//  664  * @fn      SampleApp_Send_P2P_Message
//  665  *
//  666  * @brief   point to point.
//  667  *
//  668  * @param   none
//  669  *
//  670  * @return  none
//  671  */

        RSEG BANKED_CODE:CODE:NOROOT(0)
?Subroutine7:
        CFI Block cfiCond23 Using cfiCommon0
        CFI NoFunction
        CFI Conditional ??CrossCallReturnLabel_15
        CFI R6 load(1, XDATA, add(CFA_XSP16, literal(-11)))
        CFI VB load(1, XDATA, add(CFA_XSP16, literal(-10)))
        CFI V0 load(1, XDATA, add(CFA_XSP16, literal(-9)))
        CFI V1 load(1, XDATA, add(CFA_XSP16, literal(-8)))
        CFI V2 load(1, XDATA, add(CFA_XSP16, literal(-7)))
        CFI R7 load(1, XDATA, add(CFA_XSP16, literal(-6)))
        CFI ?RET_LOW load(1, XDATA, add(CFA_XSP16, literal(-5)))
        CFI ?RET_HIGH load(1, XDATA, add(CFA_XSP16, literal(-4)))
        CFI ?BRET_EXT load(1, XDATA, add(CFA_XSP16, literal(-3)))
        CFI DPL0 load(1, XDATA, add(CFA_XSP16, literal(-2)))
        CFI DPH0 load(1, XDATA, add(CFA_XSP16, literal(-1)))
        CFI CFA_SP SP+0
        CFI CFA_XSP16 add(XSP16, 33)
        CFI Block cfiCond24 Using cfiCommon0
        CFI (cfiCond24) NoFunction
        CFI (cfiCond24) Conditional ??CrossCallReturnLabel_16
        CFI (cfiCond24) R6 load(1, XDATA, add(CFA_XSP16, literal(-11)))
        CFI (cfiCond24) VB load(1, XDATA, add(CFA_XSP16, literal(-10)))
        CFI (cfiCond24) V0 load(1, XDATA, add(CFA_XSP16, literal(-9)))
        CFI (cfiCond24) V1 load(1, XDATA, add(CFA_XSP16, literal(-8)))
        CFI (cfiCond24) V2 load(1, XDATA, add(CFA_XSP16, literal(-7)))
        CFI (cfiCond24) R7 load(1, XDATA, add(CFA_XSP16, literal(-6)))
        CFI (cfiCond24) ?RET_LOW load(1, XDATA, add(CFA_XSP16, literal(-5)))
        CFI (cfiCond24) ?RET_HIGH load(1, XDATA, add(CFA_XSP16, literal(-4)))
        CFI (cfiCond24) ?BRET_EXT load(1, XDATA, add(CFA_XSP16, literal(-3)))
        CFI (cfiCond24) DPL0 load(1, XDATA, add(CFA_XSP16, literal(-2)))
        CFI (cfiCond24) DPH0 load(1, XDATA, add(CFA_XSP16, literal(-1)))
        CFI (cfiCond24) CFA_SP SP+0
        CFI (cfiCond24) CFA_XSP16 add(XSP16, 33)
        CFI Block cfiPicker25 Using cfiCommon1
        CFI (cfiPicker25) NoFunction
        CFI (cfiPicker25) Picker
        MOV     R1,#0x20
        MOV     R4,#SampleApp_epDesc & 0xff
        MOV     R5,#(SampleApp_epDesc >> 8) & 0xff
        MOV     R2,#SampleApp_P2P_DstAddr & 0xff
        MOV     R3,#(SampleApp_P2P_DstAddr >> 8) & 0xff
        CFI EndBlock cfiCond23
        CFI EndBlock cfiCond24
        CFI EndBlock cfiPicker25
        REQUIRE ??Subroutine12_0
        ; // Fall through to label ??Subroutine12_0

        RSEG BANKED_CODE:CODE:NOROOT(0)
??Subroutine12_0:
        CFI Block cfiCond26 Using cfiCommon0
        CFI NoFunction
        CFI Conditional ??CrossCallReturnLabel_17
        CFI R6 load(1, XDATA, add(CFA_XSP16, literal(-10)))
        CFI VB load(1, XDATA, add(CFA_XSP16, literal(-9)))
        CFI V0 load(1, XDATA, add(CFA_XSP16, literal(-8)))
        CFI V1 load(1, XDATA, add(CFA_XSP16, literal(-7)))
        CFI R7 load(1, XDATA, add(CFA_XSP16, literal(-6)))
        CFI ?RET_LOW load(1, XDATA, add(CFA_XSP16, literal(-5)))
        CFI ?RET_HIGH load(1, XDATA, add(CFA_XSP16, literal(-4)))
        CFI ?BRET_EXT load(1, XDATA, add(CFA_XSP16, literal(-3)))
        CFI DPL0 load(1, XDATA, add(CFA_XSP16, literal(-2)))
        CFI DPH0 load(1, XDATA, add(CFA_XSP16, literal(-1)))
        CFI CFA_SP SP+0
        CFI CFA_XSP16 add(XSP16, 19)
        CFI Block cfiCond27 Using cfiCommon0
        CFI (cfiCond27) NoFunction
        CFI (cfiCond27) Conditional ??CrossCallReturnLabel_18
        CFI (cfiCond27) R6 load(1, XDATA, add(CFA_XSP16, literal(-10)))
        CFI (cfiCond27) VB load(1, XDATA, add(CFA_XSP16, literal(-9)))
        CFI (cfiCond27) V0 load(1, XDATA, add(CFA_XSP16, literal(-8)))
        CFI (cfiCond27) V1 load(1, XDATA, add(CFA_XSP16, literal(-7)))
        CFI (cfiCond27) R7 load(1, XDATA, add(CFA_XSP16, literal(-6)))
        CFI (cfiCond27) ?RET_LOW load(1, XDATA, add(CFA_XSP16, literal(-5)))
        CFI (cfiCond27) ?RET_HIGH load(1, XDATA, add(CFA_XSP16, literal(-4)))
        CFI (cfiCond27) ?BRET_EXT load(1, XDATA, add(CFA_XSP16, literal(-3)))
        CFI (cfiCond27) DPL0 load(1, XDATA, add(CFA_XSP16, literal(-2)))
        CFI (cfiCond27) DPH0 load(1, XDATA, add(CFA_XSP16, literal(-1)))
        CFI (cfiCond27) CFA_SP SP+0
        CFI (cfiCond27) CFA_XSP16 add(XSP16, 22)
        CFI Block cfiCond28 Using cfiCommon0
        CFI (cfiCond28) NoFunction
        CFI (cfiCond28) Conditional ??CrossCallReturnLabel_15
        CFI (cfiCond28) R6 load(1, XDATA, add(CFA_XSP16, literal(-11)))
        CFI (cfiCond28) VB load(1, XDATA, add(CFA_XSP16, literal(-10)))
        CFI (cfiCond28) V0 load(1, XDATA, add(CFA_XSP16, literal(-9)))
        CFI (cfiCond28) V1 load(1, XDATA, add(CFA_XSP16, literal(-8)))
        CFI (cfiCond28) V2 load(1, XDATA, add(CFA_XSP16, literal(-7)))
        CFI (cfiCond28) R7 load(1, XDATA, add(CFA_XSP16, literal(-6)))
        CFI (cfiCond28) ?RET_LOW load(1, XDATA, add(CFA_XSP16, literal(-5)))
        CFI (cfiCond28) ?RET_HIGH load(1, XDATA, add(CFA_XSP16, literal(-4)))
        CFI (cfiCond28) ?BRET_EXT load(1, XDATA, add(CFA_XSP16, literal(-3)))
        CFI (cfiCond28) DPL0 load(1, XDATA, add(CFA_XSP16, literal(-2)))
        CFI (cfiCond28) DPH0 load(1, XDATA, add(CFA_XSP16, literal(-1)))
        CFI (cfiCond28) CFA_SP SP+0
        CFI (cfiCond28) CFA_XSP16 add(XSP16, 33)
        CFI Block cfiCond29 Using cfiCommon0
        CFI (cfiCond29) NoFunction
        CFI (cfiCond29) Conditional ??CrossCallReturnLabel_16
        CFI (cfiCond29) R6 load(1, XDATA, add(CFA_XSP16, literal(-11)))
        CFI (cfiCond29) VB load(1, XDATA, add(CFA_XSP16, literal(-10)))
        CFI (cfiCond29) V0 load(1, XDATA, add(CFA_XSP16, literal(-9)))
        CFI (cfiCond29) V1 load(1, XDATA, add(CFA_XSP16, literal(-8)))
        CFI (cfiCond29) V2 load(1, XDATA, add(CFA_XSP16, literal(-7)))
        CFI (cfiCond29) R7 load(1, XDATA, add(CFA_XSP16, literal(-6)))
        CFI (cfiCond29) ?RET_LOW load(1, XDATA, add(CFA_XSP16, literal(-5)))
        CFI (cfiCond29) ?RET_HIGH load(1, XDATA, add(CFA_XSP16, literal(-4)))
        CFI (cfiCond29) ?BRET_EXT load(1, XDATA, add(CFA_XSP16, literal(-3)))
        CFI (cfiCond29) DPL0 load(1, XDATA, add(CFA_XSP16, literal(-2)))
        CFI (cfiCond29) DPH0 load(1, XDATA, add(CFA_XSP16, literal(-1)))
        CFI (cfiCond29) CFA_SP SP+0
        CFI (cfiCond29) CFA_XSP16 add(XSP16, 33)
        CFI Block cfiPicker30 Using cfiCommon1
        CFI (cfiPicker30) NoFunction
        CFI (cfiPicker30) Picker
        LCALL   ??AF_DataRequest?relay
        MOV     A,#0x9
        RET
        CFI EndBlock cfiCond26
        CFI EndBlock cfiCond27
        CFI EndBlock cfiCond28
        CFI EndBlock cfiCond29
        CFI EndBlock cfiPicker30

        RSEG BANKED_CODE:CODE:NOROOT(0)
//  672 void SampleApp_Send_P2P_Message( void )
SampleApp_Send_P2P_Message:
        CFI Block cfiBlock31 Using cfiCommon0
        CFI Function SampleApp_Send_P2P_Message
        CODE
//  673 {
        FUNCALL SampleApp_Send_P2P_Message, DHT11
        LOCFRAME ISTACK, 0, STACK
        LOCFRAME PSTACK, 0, STACK
        LOCFRAME XSTACK, 24, STACK
        LOCFRAME IOVERLAY, 0, STATIC
        LOCFRAME DOVERLAY, 0, STATIC
        ARGFRAME ISTACK, 0, STACK
        ARGFRAME PSTACK, 0, STACK
        ARGFRAME XSTACK, 24, STACK
        ARGFRAME IOVERLAY, 0, STATIC
        ARGFRAME DOVERLAY, 0, STATIC
        FUNCALL SampleApp_Send_P2P_Message, osal_memcpy
        LOCFRAME ISTACK, 0, STACK
        LOCFRAME PSTACK, 0, STACK
        LOCFRAME XSTACK, 27, STACK
        LOCFRAME IOVERLAY, 0, STATIC
        LOCFRAME DOVERLAY, 0, STATIC
        ARGFRAME ISTACK, 0, STACK
        ARGFRAME PSTACK, 0, STACK
        ARGFRAME XSTACK, 27, STACK
        ARGFRAME IOVERLAY, 0, STATIC
        ARGFRAME DOVERLAY, 0, STATIC
        FUNCALL SampleApp_Send_P2P_Message, osal_memcpy
        LOCFRAME ISTACK, 0, STACK
        LOCFRAME PSTACK, 0, STACK
        LOCFRAME XSTACK, 27, STACK
        LOCFRAME IOVERLAY, 0, STATIC
        LOCFRAME DOVERLAY, 0, STATIC
        ARGFRAME ISTACK, 0, STACK
        ARGFRAME PSTACK, 0, STACK
        ARGFRAME XSTACK, 27, STACK
        ARGFRAME IOVERLAY, 0, STATIC
        ARGFRAME DOVERLAY, 0, STATIC
        FUNCALL SampleApp_Send_P2P_Message, osal_memcpy
        LOCFRAME ISTACK, 0, STACK
        LOCFRAME PSTACK, 0, STACK
        LOCFRAME XSTACK, 27, STACK
        LOCFRAME IOVERLAY, 0, STATIC
        LOCFRAME DOVERLAY, 0, STATIC
        ARGFRAME ISTACK, 0, STACK
        ARGFRAME PSTACK, 0, STACK
        ARGFRAME XSTACK, 27, STACK
        ARGFRAME IOVERLAY, 0, STATIC
        ARGFRAME DOVERLAY, 0, STATIC
        FUNCALL SampleApp_Send_P2P_Message, HalUARTWrite
        LOCFRAME ISTACK, 0, STACK
        LOCFRAME PSTACK, 0, STACK
        LOCFRAME XSTACK, 24, STACK
        LOCFRAME IOVERLAY, 0, STATIC
        LOCFRAME DOVERLAY, 0, STATIC
        ARGFRAME ISTACK, 0, STACK
        ARGFRAME PSTACK, 0, STACK
        ARGFRAME XSTACK, 24, STACK
        ARGFRAME IOVERLAY, 0, STATIC
        ARGFRAME DOVERLAY, 0, STATIC
        FUNCALL SampleApp_Send_P2P_Message, HalUARTWrite
        LOCFRAME ISTACK, 0, STACK
        LOCFRAME PSTACK, 0, STACK
        LOCFRAME XSTACK, 24, STACK
        LOCFRAME IOVERLAY, 0, STATIC
        LOCFRAME DOVERLAY, 0, STATIC
        ARGFRAME ISTACK, 0, STACK
        ARGFRAME PSTACK, 0, STACK
        ARGFRAME XSTACK, 24, STACK
        ARGFRAME IOVERLAY, 0, STATIC
        ARGFRAME DOVERLAY, 0, STATIC
        FUNCALL SampleApp_Send_P2P_Message, HalUARTWrite
        LOCFRAME ISTACK, 0, STACK
        LOCFRAME PSTACK, 0, STACK
        LOCFRAME XSTACK, 24, STACK
        LOCFRAME IOVERLAY, 0, STATIC
        LOCFRAME DOVERLAY, 0, STATIC
        ARGFRAME ISTACK, 0, STACK
        ARGFRAME PSTACK, 0, STACK
        ARGFRAME XSTACK, 24, STACK
        ARGFRAME IOVERLAY, 0, STATIC
        ARGFRAME DOVERLAY, 0, STATIC
        FUNCALL SampleApp_Send_P2P_Message, LCD_P16x16Ch
        LOCFRAME ISTACK, 0, STACK
        LOCFRAME PSTACK, 0, STACK
        LOCFRAME XSTACK, 24, STACK
        LOCFRAME IOVERLAY, 0, STATIC
        LOCFRAME DOVERLAY, 0, STATIC
        ARGFRAME ISTACK, 0, STACK
        ARGFRAME PSTACK, 0, STACK
        ARGFRAME XSTACK, 24, STACK
        ARGFRAME IOVERLAY, 0, STATIC
        ARGFRAME DOVERLAY, 0, STATIC
        FUNCALL SampleApp_Send_P2P_Message, LCD_P16x16Ch
        LOCFRAME ISTACK, 0, STACK
        LOCFRAME PSTACK, 0, STACK
        LOCFRAME XSTACK, 24, STACK
        LOCFRAME IOVERLAY, 0, STATIC
        LOCFRAME DOVERLAY, 0, STATIC
        ARGFRAME ISTACK, 0, STACK
        ARGFRAME PSTACK, 0, STACK
        ARGFRAME XSTACK, 24, STACK
        ARGFRAME IOVERLAY, 0, STATIC
        ARGFRAME DOVERLAY, 0, STATIC
        FUNCALL SampleApp_Send_P2P_Message, LCD_P16x16Ch
        LOCFRAME ISTACK, 0, STACK
        LOCFRAME PSTACK, 0, STACK
        LOCFRAME XSTACK, 24, STACK
        LOCFRAME IOVERLAY, 0, STATIC
        LOCFRAME DOVERLAY, 0, STATIC
        ARGFRAME ISTACK, 0, STACK
        ARGFRAME PSTACK, 0, STACK
        ARGFRAME XSTACK, 24, STACK
        ARGFRAME IOVERLAY, 0, STATIC
        ARGFRAME DOVERLAY, 0, STATIC
        FUNCALL SampleApp_Send_P2P_Message, LCD_P16x16Ch
        LOCFRAME ISTACK, 0, STACK
        LOCFRAME PSTACK, 0, STACK
        LOCFRAME XSTACK, 24, STACK
        LOCFRAME IOVERLAY, 0, STATIC
        LOCFRAME DOVERLAY, 0, STATIC
        ARGFRAME ISTACK, 0, STACK
        ARGFRAME PSTACK, 0, STACK
        ARGFRAME XSTACK, 24, STACK
        ARGFRAME IOVERLAY, 0, STATIC
        ARGFRAME DOVERLAY, 0, STATIC
        FUNCALL SampleApp_Send_P2P_Message, LCD_P8x16Str
        LOCFRAME ISTACK, 0, STACK
        LOCFRAME PSTACK, 0, STACK
        LOCFRAME XSTACK, 24, STACK
        LOCFRAME IOVERLAY, 0, STATIC
        LOCFRAME DOVERLAY, 0, STATIC
        ARGFRAME ISTACK, 0, STACK
        ARGFRAME PSTACK, 0, STACK
        ARGFRAME XSTACK, 24, STACK
        ARGFRAME IOVERLAY, 0, STATIC
        ARGFRAME DOVERLAY, 0, STATIC
        FUNCALL SampleApp_Send_P2P_Message, LCD_P8x16Str
        LOCFRAME ISTACK, 0, STACK
        LOCFRAME PSTACK, 0, STACK
        LOCFRAME XSTACK, 24, STACK
        LOCFRAME IOVERLAY, 0, STATIC
        LOCFRAME DOVERLAY, 0, STATIC
        ARGFRAME ISTACK, 0, STACK
        ARGFRAME PSTACK, 0, STACK
        ARGFRAME XSTACK, 24, STACK
        ARGFRAME IOVERLAY, 0, STATIC
        ARGFRAME DOVERLAY, 0, STATIC
        FUNCALL SampleApp_Send_P2P_Message, AF_DataRequest
        LOCFRAME ISTACK, 0, STACK
        LOCFRAME PSTACK, 0, STACK
        LOCFRAME XSTACK, 33, STACK
        LOCFRAME IOVERLAY, 0, STATIC
        LOCFRAME DOVERLAY, 0, STATIC
        ARGFRAME ISTACK, 0, STACK
        ARGFRAME PSTACK, 0, STACK
        ARGFRAME XSTACK, 33, STACK
        ARGFRAME IOVERLAY, 0, STATIC
        ARGFRAME DOVERLAY, 0, STATIC
        FUNCALL SampleApp_Send_P2P_Message, ReadGasData
        LOCFRAME ISTACK, 0, STACK
        LOCFRAME PSTACK, 0, STACK
        LOCFRAME XSTACK, 24, STACK
        LOCFRAME IOVERLAY, 0, STATIC
        LOCFRAME DOVERLAY, 0, STATIC
        ARGFRAME ISTACK, 0, STACK
        ARGFRAME PSTACK, 0, STACK
        ARGFRAME XSTACK, 24, STACK
        ARGFRAME IOVERLAY, 0, STATIC
        ARGFRAME DOVERLAY, 0, STATIC
        FUNCALL SampleApp_Send_P2P_Message, HalUARTWrite
        LOCFRAME ISTACK, 0, STACK
        LOCFRAME PSTACK, 0, STACK
        LOCFRAME XSTACK, 24, STACK
        LOCFRAME IOVERLAY, 0, STATIC
        LOCFRAME DOVERLAY, 0, STATIC
        ARGFRAME ISTACK, 0, STACK
        ARGFRAME PSTACK, 0, STACK
        ARGFRAME XSTACK, 24, STACK
        ARGFRAME IOVERLAY, 0, STATIC
        ARGFRAME DOVERLAY, 0, STATIC
        FUNCALL SampleApp_Send_P2P_Message, AF_DataRequest
        LOCFRAME ISTACK, 0, STACK
        LOCFRAME PSTACK, 0, STACK
        LOCFRAME XSTACK, 33, STACK
        LOCFRAME IOVERLAY, 0, STATIC
        LOCFRAME DOVERLAY, 0, STATIC
        ARGFRAME ISTACK, 0, STACK
        ARGFRAME PSTACK, 0, STACK
        ARGFRAME XSTACK, 33, STACK
        ARGFRAME IOVERLAY, 0, STATIC
        ARGFRAME DOVERLAY, 0, STATIC
        MOV     A,#-0xb
        LCALL   ?BANKED_ENTER_XDATA
        CFI DPH0 load(1, XDATA, add(CFA_XSP16, literal(-1)))
        CFI DPL0 load(1, XDATA, add(CFA_XSP16, literal(-2)))
        CFI ?BRET_EXT load(1, XDATA, add(CFA_XSP16, literal(-3)))
        CFI ?RET_HIGH load(1, XDATA, add(CFA_XSP16, literal(-4)))
        CFI ?RET_LOW load(1, XDATA, add(CFA_XSP16, literal(-5)))
        CFI R7 load(1, XDATA, add(CFA_XSP16, literal(-6)))
        CFI V2 load(1, XDATA, add(CFA_XSP16, literal(-7)))
        CFI V1 load(1, XDATA, add(CFA_XSP16, literal(-8)))
        CFI V0 load(1, XDATA, add(CFA_XSP16, literal(-9)))
        CFI VB load(1, XDATA, add(CFA_XSP16, literal(-10)))
        CFI R6 load(1, XDATA, add(CFA_XSP16, literal(-11)))
        CFI CFA_SP SP+0
        CFI CFA_XSP16 add(XSP16, 11)
        ; Saved register size: 11
        ; Auto size: 13
        MOV     A,#-0xd
        LCALL   ?ALLOC_XSTACK8
        CFI CFA_XSP16 add(XSP16, 24)
//  674   byte i, temp[3], humidity[3], strTemp[7];
//  675   //byte state;
//  676 
//  677   DHT11();             //获取温湿度
        ; Setup parameters for call to function DHT11
        LCALL   ??DHT11?relay
//  678 
//  679   //将温湿度的转换成字符串,供LCD显示  
//  680   temp[0] = wendu_shi+0x30;
        MOV     DPTR,#wendu_shi
        MOVX    A,@DPTR
        ADD     A,#0x30
        PUSH    A
        CFI CFA_SP SP+-1
        MOV     A,#0x3
        LCALL   ?XSTACK_DISP0_8
        POP     A
        CFI CFA_SP SP+0
        MOVX    @DPTR,A
//  681   temp[1] = wendu_ge+0x30;
        MOV     DPTR,#wendu_ge
        MOVX    A,@DPTR
        ADD     A,#0x30
        PUSH    A
        CFI CFA_SP SP+-1
        MOV     A,#0x4
        LCALL   ?XSTACK_DISP0_8
        POP     A
        CFI CFA_SP SP+0
        MOVX    @DPTR,A
//  682   temp[2] = '\0';
        MOV     A,#0x5
        LCALL   ?XSTACK_DISP0_8
        CLR     A
        MOVX    @DPTR,A
//  683   humidity[0] = shidu_shi+0x30;
        MOV     DPTR,#shidu_shi
        MOVX    A,@DPTR
        ADD     A,#0x30
        MOV     DPL,?XSP + 0
        MOV     DPH,?XSP + 1
        MOVX    @DPTR,A
//  684   humidity[1] = shidu_ge+0x30;
        MOV     DPTR,#shidu_ge
        MOVX    A,@DPTR
        ADD     A,#0x30
        PUSH    A
        CFI CFA_SP SP+-1
        MOV     A,#0x1
        LCALL   ?XSTACK_DISP0_8
        POP     A
        CFI CFA_SP SP+0
        MOVX    @DPTR,A
//  685   humidity[2] = '\0';
        MOV     A,#0x2
        LCALL   ?XSTACK_DISP0_8
        CLR     A
        MOVX    @DPTR,A
//  686   //将数据整合后方便发给协调器显示
//  687   osal_memcpy(strTemp, temp, 2); 
        ; Setup parameters for call to function osal_memcpy
        MOV     A,#0x3
        LCALL   ?XSTACK_DISP0_8
        MOV     R1,DPL
        MOV     R2,DPH
        MOV     ?V0 + 0,R1
        MOV     ?V0 + 1,R2
        MOV     ?V0 + 2,#0x0
        MOV     R0,#?V0 + 0
        LCALL   ?PUSH_XSTACK_I_THREE
        CFI CFA_XSP16 add(XSP16, 27)
        MOV     R4,#0x2
        MOV     R5,#0x0
        MOV     A,#0x9
        LCALL   ?XSTACK_DISP0_8
        LCALL   ?Subroutine6 & 0xFFFF
??CrossCallReturnLabel_19:
        LCALL   ?DEALLOC_XSTACK8
        CFI CFA_XSP16 add(XSP16, 24)
//  688   osal_memcpy(&strTemp[2], "  ", 2);
        ; Setup parameters for call to function osal_memcpy
        MOV     ?V0 + 0,#`?<Constant "  ">` & 0xff
        MOV     ?V0 + 1,#(`?<Constant "  ">` >> 8) & 0xff
        MOV     R0,#?V0 + 0
        LCALL   ?PUSH_XSTACK_I_THREE
        CFI CFA_XSP16 add(XSP16, 27)
        MOV     R4,#0x2
        MOV     R5,#0x0
        MOV     A,#0xb
        LCALL   ?XSTACK_DISP0_8
        LCALL   ?Subroutine6 & 0xFFFF
??CrossCallReturnLabel_20:
        LCALL   ?DEALLOC_XSTACK8
        CFI CFA_XSP16 add(XSP16, 24)
//  689   osal_memcpy(&strTemp[4], humidity, 3);
        ; Setup parameters for call to function osal_memcpy
        MOV     DPL,?XSP + 0
        MOV     DPH,?XSP + 1
        MOV     R1,DPL
        MOV     R2,DPH
        MOV     ?V0 + 0,R1
        MOV     ?V0 + 1,R2
        MOV     R0,#?V0 + 0
        LCALL   ?PUSH_XSTACK_I_THREE
        CFI CFA_XSP16 add(XSP16, 27)
        MOV     R4,#0x3
        MOV     R5,#0x0
        MOV     A,#0xd
        LCALL   ?XSTACK_DISP0_8
        LCALL   ?Subroutine6 & 0xFFFF
??CrossCallReturnLabel_21:
        LCALL   ?DEALLOC_XSTACK8
        CFI CFA_XSP16 add(XSP16, 24)
//  690   
//  691   //获得的温湿度通过串口输出到电脑显示
//  692   HalUARTWrite(0, "T&H:", 4);
        ; Setup parameters for call to function HalUARTWrite
        MOV     R4,#0x4
        MOV     R5,#0x0
        MOV     R2,#`?<Constant "T&H:">` & 0xff
        MOV     R3,#(`?<Constant "T&H:">` >> 8) & 0xff
        MOV     R1,#0x0
        LCALL   ??HalUARTWrite?relay
//  693   HalUARTWrite(0, strTemp, 6);
        ; Setup parameters for call to function HalUARTWrite
        MOV     R4,#0x6
        MOV     R5,#0x0
        MOV     A,R4
        LCALL   ?XSTACK_DISP0_8
        MOV     R2,DPL
        MOV     R3,DPH
        LCALL   ?Subroutine5 & 0xFFFF
//  694   HalUARTWrite(0, "\n",1);
//  695 
//  696   //输出到LCD显示
//  697   for(i=0; i<3; i++)
//  698   {   
//  699     if(i==0)
//  700     {
//  701       LCD_P16x16Ch(i*16,4,i*16);
??CrossCallReturnLabel_6:
        ; Setup parameters for call to function LCD_P16x16Ch
        MOV     R3,#0x0
        MOV     R2,#0x4
        MOV     R1,#0x0
        LCALL   ??LCD_P16x16Ch?relay
//  702       LCD_P16x16Ch(i*16,6,(i+3)*16);
        ; Setup parameters for call to function LCD_P16x16Ch
        MOV     R3,#0x30
        MOV     R2,#0x6
        MOV     R1,#0x0
        LCALL   ??LCD_P16x16Ch?relay
//  703     }
        MOV     R7,#0x1
//  704     else
//  705     {
//  706       LCD_P16x16Ch(i*16,4,i*16);
??SampleApp_Send_P2P_Message_0:
        MOV     A,R7
        SWAP    A
        ANL     A,#0xf0
        MOV     R6,A
        ; Setup parameters for call to function LCD_P16x16Ch
        MOV     R3,A
        MOV     R2,#0x4
        MOV     R1,A
        LCALL   ??LCD_P16x16Ch?relay
//  707       LCD_P16x16Ch(i*16,6,i*16);        
        ; Setup parameters for call to function LCD_P16x16Ch
        MOV     A,R6
        MOV     R3,A
        MOV     R2,#0x6
        MOV     R1,A
        LCALL   ??LCD_P16x16Ch?relay
//  708     }
//  709   } 
        INC     R7
        MOV     A,R7
        CLR     C
        SUBB    A,#0x3
        JC      ??SampleApp_Send_P2P_Message_0
//  710   LCD_P8x16Str(44, 4, temp);
        ; Setup parameters for call to function LCD_P8x16Str
        MOV     A,#0x3
        LCALL   ?XSTACK_DISP0_8
        MOV     R4,DPL
        MOV     R5,DPH
        MOV     R2,#0x4
        MOV     R1,#0x2c
        LCALL   ??LCD_P8x16Str?relay
//  711   LCD_P8x16Str(44, 6, humidity);
        ; Setup parameters for call to function LCD_P8x16Str
        MOV     DPL,?XSP + 0
        MOV     DPH,?XSP + 1
        MOV     R4,DPL
        MOV     R5,DPH
        MOV     R2,#0x6
        MOV     R1,#0x2c
        LCALL   ??LCD_P8x16Str?relay
//  712  
//  713   if ( AF_DataRequest( &SampleApp_P2P_DstAddr, &SampleApp_epDesc,
//  714                        SAMPLEAPP_P2P_CLUSTERID,
//  715                        6,
//  716                        strTemp,
//  717                        &SampleApp_TransID,
//  718                        AF_DISCV_ROUTE,
//  719                        AF_DEFAULT_RADIUS ) == afStatus_SUCCESS )
        ; Setup parameters for call to function AF_DataRequest
        MOV     ?V0 + 0,#0x1e
        MOV     R0,#?V0 + 0
        LCALL   ?PUSH_XSTACK_I_ONE
        CFI CFA_XSP16 add(XSP16, 25)
        MOV     ?V0 + 0,#SampleApp_TransID & 0xff
        MOV     ?V0 + 1,#(SampleApp_TransID >> 8) & 0xff
        MOV     R0,#?V0 + 0
        LCALL   ?PUSH_XSTACK_I_TWO
        CFI CFA_XSP16 add(XSP16, 27)
        MOV     A,#0x9
        LCALL   ?XSTACK_DISP0_8
        MOV     ?V0 + 0,DPL
        MOV     ?V0 + 1,DPH
        MOV     R0,#?V0 + 0
        LCALL   ?PUSH_XSTACK_I_TWO
        CFI CFA_XSP16 add(XSP16, 29)
        MOV     ?V0 + 0,#0x6
        MOV     ?V0 + 1,#0x0
        MOV     R0,#?V0 + 0
        LCALL   ?PUSH_XSTACK_I_TWO
        CFI CFA_XSP16 add(XSP16, 31)
        MOV     ?V0 + 0,#0x3
        MOV     R0,#?V0 + 0
        LCALL   ?PUSH_XSTACK_I_TWO
        CFI CFA_XSP16 add(XSP16, 33)
        LCALL   ?Subroutine7 & 0xFFFF
??CrossCallReturnLabel_15:
        LCALL   ?DEALLOC_XSTACK8
        CFI CFA_XSP16 add(XSP16, 24)
//  720   {
//  721   }
//  722   else
//  723   {
//  724     // Error occurred in request to send.
//  725   }
//  726   
//  727   
//  728   
//  729  
//  730   GasData = ReadGasData(); //读取烟雾传感器引脚上的 ad 转换值，并没有换算成能表示烟雾浓度的值。演示如何使用 2530 芯片的 AD 功能，更具体在组网中给出
        ; Setup parameters for call to function ReadGasData
        LCALL   ??ReadGasData?relay
        MOV     DPTR,#GasData
        MOV     A,R2
        MOVX    @DPTR,A
        INC     DPTR
        MOV     A,R3
        LCALL   ?Subroutine8 & 0xFFFF
//  731   //读取到的数值转换成字符串，供串口函数输出
//  732   TxBuf[0] = GasData / 100 + '0';
??CrossCallReturnLabel_7:
        MOV     R2,#0x64
        MOV     R3,#0x0
        LCALL   ?US_DIV_MOD
        MOV     A,R0
        ADD     A,#0x30
        MOV     DPTR,#TxBuf
        LCALL   ?Subroutine3 & 0xFFFF
//  733   TxBuf[1] = GasData / 10%10 + '0';
??CrossCallReturnLabel_2:
        LCALL   ?US_DIV_MOD
        MOV     R2,#0xa
        MOV     R3,#0x0
        LCALL   ?US_DIV_MOD
        MOV     A,R2
        ADD     A,#0x30
        MOV     DPTR,#TxBuf + 1
        LCALL   ?Subroutine3 & 0xFFFF
//  734   TxBuf[2] = GasData % 10 + '0';
??CrossCallReturnLabel_3:
        LCALL   ?US_DIV_MOD
        MOV     A,R2
        ADD     A,#0x30
        MOV     DPTR,#TxBuf + 2
        MOVX    @DPTR,A
//  735   TxBuf[3] = '\n';
        INC     DPTR
        MOV     A,#0xa
        MOVX    @DPTR,A
//  736   TxBuf[4] = 0;
        INC     DPTR
        CLR     A
        MOVX    @DPTR,A
//  737   //UartSendString(TxBuf, 4); //通过串口发出数据，波特率是 115200 8N1
//  738   //DelayMS(1000); //延时函数
//  739     
//  740   
//  741   
//  742   HalUARTWrite(0,TxBuf, 5);//串口显示
        ; Setup parameters for call to function HalUARTWrite
        MOV     R4,#0x5
        MOV     R5,A
        MOV     R2,#TxBuf & 0xff
        MOV     R3,#(TxBuf >> 8) & 0xff
        MOV     R1,A
        LCALL   ??HalUARTWrite?relay
//  743   
//  744   if ( AF_DataRequest( &SampleApp_P2P_DstAddr, &SampleApp_epDesc,
//  745                        SAMPLEAPP_P2P_CLUSTERID,
//  746                        5,
//  747                        TxBuf,
//  748                        &SampleApp_TransID,
//  749                        AF_DISCV_ROUTE,
//  750                        AF_DEFAULT_RADIUS ) == afStatus_SUCCESS )
        ; Setup parameters for call to function AF_DataRequest
        MOV     ?V0 + 0,#0x1e
        MOV     R0,#?V0 + 0
        LCALL   ?PUSH_XSTACK_I_ONE
        CFI CFA_XSP16 add(XSP16, 25)
        MOV     ?V0 + 0,#SampleApp_TransID & 0xff
        MOV     ?V0 + 1,#(SampleApp_TransID >> 8) & 0xff
        MOV     R0,#?V0 + 0
        LCALL   ?PUSH_XSTACK_I_TWO
        CFI CFA_XSP16 add(XSP16, 27)
        MOV     ?V0 + 0,#TxBuf & 0xff
        MOV     ?V0 + 1,#(TxBuf >> 8) & 0xff
        MOV     R0,#?V0 + 0
        LCALL   ?PUSH_XSTACK_I_TWO
        CFI CFA_XSP16 add(XSP16, 29)
        MOV     ?V0 + 0,#0x5
        MOV     ?V0 + 1,#0x0
        MOV     R0,#?V0 + 0
        LCALL   ?PUSH_XSTACK_I_TWO
        CFI CFA_XSP16 add(XSP16, 31)
        MOV     ?V0 + 0,#0x3
        MOV     R0,#?V0 + 0
        LCALL   ?PUSH_XSTACK_I_TWO
        CFI CFA_XSP16 add(XSP16, 33)
        LCALL   ?Subroutine7 & 0xFFFF
??CrossCallReturnLabel_16:
        LCALL   ?DEALLOC_XSTACK8
        CFI CFA_XSP16 add(XSP16, 24)
//  751   {
//  752   }
//  753   else
//  754   {
//  755     // Error occurred in request to send.
//  756   }   
//  757   
//  758   
//  759   
//  760   
//  761   /*
//  762   if(DATA_PIN == 1)
//  763   { 
//  764     state = 0x31;       //高电平时说明没有检测到气体。
//  765     HalUARTWrite(0,"GAS:security\n", 13);                 //串口显示
//  766     HalLcdWriteString( "GAS:security\n", HAL_LCD_LINE_3 ); //LCD显示 
//  767   }  
//  768   else 
//  769   {  
//  770     MicroWait (10000);   // Wait 10ms
//  771     if(DATA_PIN == 0)
//  772     {     
//  773       state = 0x30;      //当输出低电平时信号灯亮,检测到气体
//  774       HalUARTWrite(0,"GAS:Got bad Air\n",16);                 //串口显示
//  775       HalLcdWriteString( "GAS:Got bad Air", HAL_LCD_LINE_3 ); //LCD显示 
//  776     }
//  777   }
//  778 
//  779   if ( AF_DataRequest( &SampleApp_P2P_DstAddr, &SampleApp_epDesc,
//  780                        SAMPLEAPP_P2P_CLUSTERID,
//  781                        1,
//  782                        &state,
//  783                        &SampleApp_TransID,
//  784                        AF_DISCV_ROUTE,
//  785                        AF_DEFAULT_RADIUS ) == afStatus_SUCCESS )
//  786   {
//  787   }
//  788   else
//  789   {
//  790     // Error occurred in request to send.
//  791   }   
//  792    */
//  793 }
        MOV     A,#0xd
        LCALL   ?DEALLOC_XSTACK8
        CFI CFA_XSP16 add(XSP16, 11)
        LJMP    ?Subroutine0 & 0xFFFF
        CFI EndBlock cfiBlock31

        RSEG BANKED_CODE:CODE:NOROOT(0)
?Subroutine6:
        CFI Block cfiCond32 Using cfiCommon0
        CFI NoFunction
        CFI Conditional ??CrossCallReturnLabel_19
        CFI R6 load(1, XDATA, add(CFA_XSP16, literal(-11)))
        CFI VB load(1, XDATA, add(CFA_XSP16, literal(-10)))
        CFI V0 load(1, XDATA, add(CFA_XSP16, literal(-9)))
        CFI V1 load(1, XDATA, add(CFA_XSP16, literal(-8)))
        CFI V2 load(1, XDATA, add(CFA_XSP16, literal(-7)))
        CFI R7 load(1, XDATA, add(CFA_XSP16, literal(-6)))
        CFI ?RET_LOW load(1, XDATA, add(CFA_XSP16, literal(-5)))
        CFI ?RET_HIGH load(1, XDATA, add(CFA_XSP16, literal(-4)))
        CFI ?BRET_EXT load(1, XDATA, add(CFA_XSP16, literal(-3)))
        CFI DPL0 load(1, XDATA, add(CFA_XSP16, literal(-2)))
        CFI DPH0 load(1, XDATA, add(CFA_XSP16, literal(-1)))
        CFI CFA_SP SP+0
        CFI CFA_XSP16 add(XSP16, 27)
        CFI Block cfiCond33 Using cfiCommon0
        CFI (cfiCond33) NoFunction
        CFI (cfiCond33) Conditional ??CrossCallReturnLabel_20
        CFI (cfiCond33) R6 load(1, XDATA, add(CFA_XSP16, literal(-11)))
        CFI (cfiCond33) VB load(1, XDATA, add(CFA_XSP16, literal(-10)))
        CFI (cfiCond33) V0 load(1, XDATA, add(CFA_XSP16, literal(-9)))
        CFI (cfiCond33) V1 load(1, XDATA, add(CFA_XSP16, literal(-8)))
        CFI (cfiCond33) V2 load(1, XDATA, add(CFA_XSP16, literal(-7)))
        CFI (cfiCond33) R7 load(1, XDATA, add(CFA_XSP16, literal(-6)))
        CFI (cfiCond33) ?RET_LOW load(1, XDATA, add(CFA_XSP16, literal(-5)))
        CFI (cfiCond33) ?RET_HIGH load(1, XDATA, add(CFA_XSP16, literal(-4)))
        CFI (cfiCond33) ?BRET_EXT load(1, XDATA, add(CFA_XSP16, literal(-3)))
        CFI (cfiCond33) DPL0 load(1, XDATA, add(CFA_XSP16, literal(-2)))
        CFI (cfiCond33) DPH0 load(1, XDATA, add(CFA_XSP16, literal(-1)))
        CFI (cfiCond33) CFA_SP SP+0
        CFI (cfiCond33) CFA_XSP16 add(XSP16, 27)
        CFI Block cfiCond34 Using cfiCommon0
        CFI (cfiCond34) NoFunction
        CFI (cfiCond34) Conditional ??CrossCallReturnLabel_21
        CFI (cfiCond34) R6 load(1, XDATA, add(CFA_XSP16, literal(-11)))
        CFI (cfiCond34) VB load(1, XDATA, add(CFA_XSP16, literal(-10)))
        CFI (cfiCond34) V0 load(1, XDATA, add(CFA_XSP16, literal(-9)))
        CFI (cfiCond34) V1 load(1, XDATA, add(CFA_XSP16, literal(-8)))
        CFI (cfiCond34) V2 load(1, XDATA, add(CFA_XSP16, literal(-7)))
        CFI (cfiCond34) R7 load(1, XDATA, add(CFA_XSP16, literal(-6)))
        CFI (cfiCond34) ?RET_LOW load(1, XDATA, add(CFA_XSP16, literal(-5)))
        CFI (cfiCond34) ?RET_HIGH load(1, XDATA, add(CFA_XSP16, literal(-4)))
        CFI (cfiCond34) ?BRET_EXT load(1, XDATA, add(CFA_XSP16, literal(-3)))
        CFI (cfiCond34) DPL0 load(1, XDATA, add(CFA_XSP16, literal(-2)))
        CFI (cfiCond34) DPH0 load(1, XDATA, add(CFA_XSP16, literal(-1)))
        CFI (cfiCond34) CFA_SP SP+0
        CFI (cfiCond34) CFA_XSP16 add(XSP16, 27)
        CFI Block cfiPicker35 Using cfiCommon1
        CFI (cfiPicker35) NoFunction
        CFI (cfiPicker35) Picker
        MOV     R2,DPL
        MOV     R3,DPH
        CFI EndBlock cfiCond32
        CFI EndBlock cfiCond33
        CFI EndBlock cfiCond34
        CFI EndBlock cfiPicker35
        REQUIRE ??Subroutine13_0
        ; // Fall through to label ??Subroutine13_0

        RSEG BANKED_CODE:CODE:NOROOT(0)
??Subroutine13_0:
        CFI Block cfiCond36 Using cfiCommon0
        CFI NoFunction
        CFI Conditional ??CrossCallReturnLabel_22
        CFI R6 load(1, XDATA, add(CFA_XSP16, literal(-11)))
        CFI VB load(1, XDATA, add(CFA_XSP16, literal(-10)))
        CFI V0 load(1, XDATA, add(CFA_XSP16, literal(-9)))
        CFI V1 load(1, XDATA, add(CFA_XSP16, literal(-8)))
        CFI V2 load(1, XDATA, add(CFA_XSP16, literal(-7)))
        CFI R7 load(1, XDATA, add(CFA_XSP16, literal(-6)))
        CFI ?RET_LOW load(1, XDATA, add(CFA_XSP16, literal(-5)))
        CFI ?RET_HIGH load(1, XDATA, add(CFA_XSP16, literal(-4)))
        CFI ?BRET_EXT load(1, XDATA, add(CFA_XSP16, literal(-3)))
        CFI DPL0 load(1, XDATA, add(CFA_XSP16, literal(-2)))
        CFI DPH0 load(1, XDATA, add(CFA_XSP16, literal(-1)))
        CFI CFA_SP SP+0
        CFI CFA_XSP16 add(XSP16, 14)
        CFI Block cfiCond37 Using cfiCommon0
        CFI (cfiCond37) NoFunction
        CFI (cfiCond37) Conditional ??CrossCallReturnLabel_19
        CFI (cfiCond37) R6 load(1, XDATA, add(CFA_XSP16, literal(-11)))
        CFI (cfiCond37) VB load(1, XDATA, add(CFA_XSP16, literal(-10)))
        CFI (cfiCond37) V0 load(1, XDATA, add(CFA_XSP16, literal(-9)))
        CFI (cfiCond37) V1 load(1, XDATA, add(CFA_XSP16, literal(-8)))
        CFI (cfiCond37) V2 load(1, XDATA, add(CFA_XSP16, literal(-7)))
        CFI (cfiCond37) R7 load(1, XDATA, add(CFA_XSP16, literal(-6)))
        CFI (cfiCond37) ?RET_LOW load(1, XDATA, add(CFA_XSP16, literal(-5)))
        CFI (cfiCond37) ?RET_HIGH load(1, XDATA, add(CFA_XSP16, literal(-4)))
        CFI (cfiCond37) ?BRET_EXT load(1, XDATA, add(CFA_XSP16, literal(-3)))
        CFI (cfiCond37) DPL0 load(1, XDATA, add(CFA_XSP16, literal(-2)))
        CFI (cfiCond37) DPH0 load(1, XDATA, add(CFA_XSP16, literal(-1)))
        CFI (cfiCond37) CFA_SP SP+0
        CFI (cfiCond37) CFA_XSP16 add(XSP16, 27)
        CFI Block cfiCond38 Using cfiCommon0
        CFI (cfiCond38) NoFunction
        CFI (cfiCond38) Conditional ??CrossCallReturnLabel_20
        CFI (cfiCond38) R6 load(1, XDATA, add(CFA_XSP16, literal(-11)))
        CFI (cfiCond38) VB load(1, XDATA, add(CFA_XSP16, literal(-10)))
        CFI (cfiCond38) V0 load(1, XDATA, add(CFA_XSP16, literal(-9)))
        CFI (cfiCond38) V1 load(1, XDATA, add(CFA_XSP16, literal(-8)))
        CFI (cfiCond38) V2 load(1, XDATA, add(CFA_XSP16, literal(-7)))
        CFI (cfiCond38) R7 load(1, XDATA, add(CFA_XSP16, literal(-6)))
        CFI (cfiCond38) ?RET_LOW load(1, XDATA, add(CFA_XSP16, literal(-5)))
        CFI (cfiCond38) ?RET_HIGH load(1, XDATA, add(CFA_XSP16, literal(-4)))
        CFI (cfiCond38) ?BRET_EXT load(1, XDATA, add(CFA_XSP16, literal(-3)))
        CFI (cfiCond38) DPL0 load(1, XDATA, add(CFA_XSP16, literal(-2)))
        CFI (cfiCond38) DPH0 load(1, XDATA, add(CFA_XSP16, literal(-1)))
        CFI (cfiCond38) CFA_SP SP+0
        CFI (cfiCond38) CFA_XSP16 add(XSP16, 27)
        CFI Block cfiCond39 Using cfiCommon0
        CFI (cfiCond39) NoFunction
        CFI (cfiCond39) Conditional ??CrossCallReturnLabel_21
        CFI (cfiCond39) R6 load(1, XDATA, add(CFA_XSP16, literal(-11)))
        CFI (cfiCond39) VB load(1, XDATA, add(CFA_XSP16, literal(-10)))
        CFI (cfiCond39) V0 load(1, XDATA, add(CFA_XSP16, literal(-9)))
        CFI (cfiCond39) V1 load(1, XDATA, add(CFA_XSP16, literal(-8)))
        CFI (cfiCond39) V2 load(1, XDATA, add(CFA_XSP16, literal(-7)))
        CFI (cfiCond39) R7 load(1, XDATA, add(CFA_XSP16, literal(-6)))
        CFI (cfiCond39) ?RET_LOW load(1, XDATA, add(CFA_XSP16, literal(-5)))
        CFI (cfiCond39) ?RET_HIGH load(1, XDATA, add(CFA_XSP16, literal(-4)))
        CFI (cfiCond39) ?BRET_EXT load(1, XDATA, add(CFA_XSP16, literal(-3)))
        CFI (cfiCond39) DPL0 load(1, XDATA, add(CFA_XSP16, literal(-2)))
        CFI (cfiCond39) DPH0 load(1, XDATA, add(CFA_XSP16, literal(-1)))
        CFI (cfiCond39) CFA_SP SP+0
        CFI (cfiCond39) CFA_XSP16 add(XSP16, 27)
        CFI Block cfiPicker40 Using cfiCommon1
        CFI (cfiPicker40) NoFunction
        CFI (cfiPicker40) Picker
        LCALL   ??osal_memcpy?relay
        MOV     A,#0x3
        RET
        CFI EndBlock cfiCond36
        CFI EndBlock cfiCond37
        CFI EndBlock cfiCond38
        CFI EndBlock cfiCond39
        CFI EndBlock cfiPicker40

        RSEG BANKED_CODE:CODE:NOROOT(0)
?Subroutine5:
        CFI Block cfiCond41 Using cfiCommon0
        CFI NoFunction
        CFI Conditional ??CrossCallReturnLabel_4
        CFI R6 load(1, XDATA, add(CFA_XSP16, literal(-10)))
        CFI VB load(1, XDATA, add(CFA_XSP16, literal(-9)))
        CFI V0 load(1, XDATA, add(CFA_XSP16, literal(-8)))
        CFI V1 load(1, XDATA, add(CFA_XSP16, literal(-7)))
        CFI R7 load(1, XDATA, add(CFA_XSP16, literal(-6)))
        CFI ?RET_LOW load(1, XDATA, add(CFA_XSP16, literal(-5)))
        CFI ?RET_HIGH load(1, XDATA, add(CFA_XSP16, literal(-4)))
        CFI ?BRET_EXT load(1, XDATA, add(CFA_XSP16, literal(-3)))
        CFI DPL0 load(1, XDATA, add(CFA_XSP16, literal(-2)))
        CFI DPH0 load(1, XDATA, add(CFA_XSP16, literal(-1)))
        CFI CFA_SP SP+0
        CFI CFA_XSP16 add(XSP16, 10)
        CFI Block cfiCond42 Using cfiCommon0
        CFI (cfiCond42) NoFunction
        CFI (cfiCond42) Conditional ??CrossCallReturnLabel_5
        CFI (cfiCond42) R6 load(1, XDATA, add(CFA_XSP16, literal(-10)))
        CFI (cfiCond42) VB load(1, XDATA, add(CFA_XSP16, literal(-9)))
        CFI (cfiCond42) V0 load(1, XDATA, add(CFA_XSP16, literal(-8)))
        CFI (cfiCond42) V1 load(1, XDATA, add(CFA_XSP16, literal(-7)))
        CFI (cfiCond42) R7 load(1, XDATA, add(CFA_XSP16, literal(-6)))
        CFI (cfiCond42) ?RET_LOW load(1, XDATA, add(CFA_XSP16, literal(-5)))
        CFI (cfiCond42) ?RET_HIGH load(1, XDATA, add(CFA_XSP16, literal(-4)))
        CFI (cfiCond42) ?BRET_EXT load(1, XDATA, add(CFA_XSP16, literal(-3)))
        CFI (cfiCond42) DPL0 load(1, XDATA, add(CFA_XSP16, literal(-2)))
        CFI (cfiCond42) DPH0 load(1, XDATA, add(CFA_XSP16, literal(-1)))
        CFI (cfiCond42) CFA_SP SP+0
        CFI (cfiCond42) CFA_XSP16 add(XSP16, 10)
        CFI Block cfiCond43 Using cfiCommon0
        CFI (cfiCond43) NoFunction
        CFI (cfiCond43) Conditional ??CrossCallReturnLabel_6
        CFI (cfiCond43) R6 load(1, XDATA, add(CFA_XSP16, literal(-11)))
        CFI (cfiCond43) VB load(1, XDATA, add(CFA_XSP16, literal(-10)))
        CFI (cfiCond43) V0 load(1, XDATA, add(CFA_XSP16, literal(-9)))
        CFI (cfiCond43) V1 load(1, XDATA, add(CFA_XSP16, literal(-8)))
        CFI (cfiCond43) V2 load(1, XDATA, add(CFA_XSP16, literal(-7)))
        CFI (cfiCond43) R7 load(1, XDATA, add(CFA_XSP16, literal(-6)))
        CFI (cfiCond43) ?RET_LOW load(1, XDATA, add(CFA_XSP16, literal(-5)))
        CFI (cfiCond43) ?RET_HIGH load(1, XDATA, add(CFA_XSP16, literal(-4)))
        CFI (cfiCond43) ?BRET_EXT load(1, XDATA, add(CFA_XSP16, literal(-3)))
        CFI (cfiCond43) DPL0 load(1, XDATA, add(CFA_XSP16, literal(-2)))
        CFI (cfiCond43) DPH0 load(1, XDATA, add(CFA_XSP16, literal(-1)))
        CFI (cfiCond43) CFA_SP SP+0
        CFI (cfiCond43) CFA_XSP16 add(XSP16, 24)
        CFI Block cfiPicker44 Using cfiCommon1
        CFI (cfiPicker44) NoFunction
        CFI (cfiPicker44) Picker
        LCALL   ?Subroutine9 & 0xFFFF
??CrossCallReturnLabel_10:
        RET
        CFI EndBlock cfiCond41
        CFI EndBlock cfiCond42
        CFI EndBlock cfiCond43
        CFI EndBlock cfiPicker44

        RSEG BANKED_CODE:CODE:NOROOT(0)
?Subroutine9:
        CFI Block cfiCond45 Using cfiCommon0
        CFI NoFunction
        CFI Conditional ??CrossCallReturnLabel_9, ??CrossCallReturnLabel_0
        CFI R6 load(1, XDATA, add(CFA_XSP16, literal(-10)))
        CFI VB load(1, XDATA, add(CFA_XSP16, literal(-9)))
        CFI V0 load(1, XDATA, add(CFA_XSP16, literal(-8)))
        CFI V1 load(1, XDATA, add(CFA_XSP16, literal(-7)))
        CFI R7 load(1, XDATA, add(CFA_XSP16, literal(-6)))
        CFI ?RET_LOW load(1, XDATA, add(CFA_XSP16, literal(-5)))
        CFI ?RET_HIGH load(1, XDATA, add(CFA_XSP16, literal(-4)))
        CFI ?BRET_EXT load(1, XDATA, add(CFA_XSP16, literal(-3)))
        CFI DPL0 load(1, XDATA, add(CFA_XSP16, literal(-2)))
        CFI DPH0 load(1, XDATA, add(CFA_XSP16, literal(-1)))
        CFI CFA_SP SP+0
        CFI CFA_XSP16 add(XSP16, 10)
        CFI Block cfiCond46 Using cfiCommon0
        CFI (cfiCond46) NoFunction
        CFI (cfiCond46) Conditional ??CrossCallReturnLabel_9, ??CrossCallReturnLabel_1
        CFI (cfiCond46) R6 load(1, XDATA, add(CFA_XSP16, literal(-10)))
        CFI (cfiCond46) VB load(1, XDATA, add(CFA_XSP16, literal(-9)))
        CFI (cfiCond46) V0 load(1, XDATA, add(CFA_XSP16, literal(-8)))
        CFI (cfiCond46) V1 load(1, XDATA, add(CFA_XSP16, literal(-7)))
        CFI (cfiCond46) R7 load(1, XDATA, add(CFA_XSP16, literal(-6)))
        CFI (cfiCond46) ?RET_LOW load(1, XDATA, add(CFA_XSP16, literal(-5)))
        CFI (cfiCond46) ?RET_HIGH load(1, XDATA, add(CFA_XSP16, literal(-4)))
        CFI (cfiCond46) ?BRET_EXT load(1, XDATA, add(CFA_XSP16, literal(-3)))
        CFI (cfiCond46) DPL0 load(1, XDATA, add(CFA_XSP16, literal(-2)))
        CFI (cfiCond46) DPH0 load(1, XDATA, add(CFA_XSP16, literal(-1)))
        CFI (cfiCond46) CFA_SP SP+0
        CFI (cfiCond46) CFA_XSP16 add(XSP16, 10)
        CFI Block cfiCond47 Using cfiCommon0
        CFI (cfiCond47) NoFunction
        CFI (cfiCond47) Conditional ??CrossCallReturnLabel_10, ??CrossCallReturnLabel_4
        CFI (cfiCond47) R6 load(1, XDATA, add(CFA_XSP16, literal(-10)))
        CFI (cfiCond47) VB load(1, XDATA, add(CFA_XSP16, literal(-9)))
        CFI (cfiCond47) V0 load(1, XDATA, add(CFA_XSP16, literal(-8)))
        CFI (cfiCond47) V1 load(1, XDATA, add(CFA_XSP16, literal(-7)))
        CFI (cfiCond47) R7 load(1, XDATA, add(CFA_XSP16, literal(-6)))
        CFI (cfiCond47) ?RET_LOW load(1, XDATA, add(CFA_XSP16, literal(-5)))
        CFI (cfiCond47) ?RET_HIGH load(1, XDATA, add(CFA_XSP16, literal(-4)))
        CFI (cfiCond47) ?BRET_EXT load(1, XDATA, add(CFA_XSP16, literal(-3)))
        CFI (cfiCond47) DPL0 load(1, XDATA, add(CFA_XSP16, literal(-2)))
        CFI (cfiCond47) DPH0 load(1, XDATA, add(CFA_XSP16, literal(-1)))
        CFI (cfiCond47) CFA_SP SP+0
        CFI (cfiCond47) CFA_XSP16 add(XSP16, 10)
        CFI Block cfiCond48 Using cfiCommon0
        CFI (cfiCond48) NoFunction
        CFI (cfiCond48) Conditional ??CrossCallReturnLabel_10, ??CrossCallReturnLabel_5
        CFI (cfiCond48) R6 load(1, XDATA, add(CFA_XSP16, literal(-10)))
        CFI (cfiCond48) VB load(1, XDATA, add(CFA_XSP16, literal(-9)))
        CFI (cfiCond48) V0 load(1, XDATA, add(CFA_XSP16, literal(-8)))
        CFI (cfiCond48) V1 load(1, XDATA, add(CFA_XSP16, literal(-7)))
        CFI (cfiCond48) R7 load(1, XDATA, add(CFA_XSP16, literal(-6)))
        CFI (cfiCond48) ?RET_LOW load(1, XDATA, add(CFA_XSP16, literal(-5)))
        CFI (cfiCond48) ?RET_HIGH load(1, XDATA, add(CFA_XSP16, literal(-4)))
        CFI (cfiCond48) ?BRET_EXT load(1, XDATA, add(CFA_XSP16, literal(-3)))
        CFI (cfiCond48) DPL0 load(1, XDATA, add(CFA_XSP16, literal(-2)))
        CFI (cfiCond48) DPH0 load(1, XDATA, add(CFA_XSP16, literal(-1)))
        CFI (cfiCond48) CFA_SP SP+0
        CFI (cfiCond48) CFA_XSP16 add(XSP16, 10)
        CFI Block cfiCond49 Using cfiCommon0
        CFI (cfiCond49) NoFunction
        CFI (cfiCond49) Conditional ??CrossCallReturnLabel_10, ??CrossCallReturnLabel_6
        CFI (cfiCond49) R6 load(1, XDATA, add(CFA_XSP16, literal(-11)))
        CFI (cfiCond49) VB load(1, XDATA, add(CFA_XSP16, literal(-10)))
        CFI (cfiCond49) V0 load(1, XDATA, add(CFA_XSP16, literal(-9)))
        CFI (cfiCond49) V1 load(1, XDATA, add(CFA_XSP16, literal(-8)))
        CFI (cfiCond49) V2 load(1, XDATA, add(CFA_XSP16, literal(-7)))
        CFI (cfiCond49) R7 load(1, XDATA, add(CFA_XSP16, literal(-6)))
        CFI (cfiCond49) ?RET_LOW load(1, XDATA, add(CFA_XSP16, literal(-5)))
        CFI (cfiCond49) ?RET_HIGH load(1, XDATA, add(CFA_XSP16, literal(-4)))
        CFI (cfiCond49) ?BRET_EXT load(1, XDATA, add(CFA_XSP16, literal(-3)))
        CFI (cfiCond49) DPL0 load(1, XDATA, add(CFA_XSP16, literal(-2)))
        CFI (cfiCond49) DPH0 load(1, XDATA, add(CFA_XSP16, literal(-1)))
        CFI (cfiCond49) CFA_SP SP+0
        CFI (cfiCond49) CFA_XSP16 add(XSP16, 24)
        CFI Block cfiPicker50 Using cfiCommon1
        CFI (cfiPicker50) NoFunction
        CFI (cfiPicker50) Picker
        MOV     R1,#0x0
        LCALL   ??HalUARTWrite?relay
        ; Setup parameters for call to function HalUARTWrite
        ; Setup parameters for call to function HalUARTWrite
        ; Setup parameters for call to function HalUARTWrite
        ; Setup parameters for call to function HalUARTWrite
        ; Setup parameters for call to function HalUARTWrite
        MOV     R4,#0x1
        MOV     R5,#0x0
        MOV     R2,#`?<Constant "\\n">` & 0xff
        MOV     R3,#(`?<Constant "\\n">` >> 8) & 0xff
        MOV     R1,#0x0
        LCALL   ??HalUARTWrite?relay
        RET
        CFI EndBlock cfiCond45
        CFI EndBlock cfiCond46
        CFI EndBlock cfiCond47
        CFI EndBlock cfiCond48
        CFI EndBlock cfiCond49
        CFI EndBlock cfiPicker50

        RSEG BANKED_CODE:CODE:NOROOT(0)
?Subroutine3:
        CFI Block cfiCond51 Using cfiCommon0
        CFI NoFunction
        CFI Conditional ??CrossCallReturnLabel_2
        CFI R6 load(1, XDATA, add(CFA_XSP16, literal(-11)))
        CFI VB load(1, XDATA, add(CFA_XSP16, literal(-10)))
        CFI V0 load(1, XDATA, add(CFA_XSP16, literal(-9)))
        CFI V1 load(1, XDATA, add(CFA_XSP16, literal(-8)))
        CFI V2 load(1, XDATA, add(CFA_XSP16, literal(-7)))
        CFI R7 load(1, XDATA, add(CFA_XSP16, literal(-6)))
        CFI ?RET_LOW load(1, XDATA, add(CFA_XSP16, literal(-5)))
        CFI ?RET_HIGH load(1, XDATA, add(CFA_XSP16, literal(-4)))
        CFI ?BRET_EXT load(1, XDATA, add(CFA_XSP16, literal(-3)))
        CFI DPL0 load(1, XDATA, add(CFA_XSP16, literal(-2)))
        CFI DPH0 load(1, XDATA, add(CFA_XSP16, literal(-1)))
        CFI CFA_SP SP+0
        CFI CFA_XSP16 add(XSP16, 24)
        CFI Block cfiCond52 Using cfiCommon0
        CFI (cfiCond52) NoFunction
        CFI (cfiCond52) Conditional ??CrossCallReturnLabel_3
        CFI (cfiCond52) R6 load(1, XDATA, add(CFA_XSP16, literal(-11)))
        CFI (cfiCond52) VB load(1, XDATA, add(CFA_XSP16, literal(-10)))
        CFI (cfiCond52) V0 load(1, XDATA, add(CFA_XSP16, literal(-9)))
        CFI (cfiCond52) V1 load(1, XDATA, add(CFA_XSP16, literal(-8)))
        CFI (cfiCond52) V2 load(1, XDATA, add(CFA_XSP16, literal(-7)))
        CFI (cfiCond52) R7 load(1, XDATA, add(CFA_XSP16, literal(-6)))
        CFI (cfiCond52) ?RET_LOW load(1, XDATA, add(CFA_XSP16, literal(-5)))
        CFI (cfiCond52) ?RET_HIGH load(1, XDATA, add(CFA_XSP16, literal(-4)))
        CFI (cfiCond52) ?BRET_EXT load(1, XDATA, add(CFA_XSP16, literal(-3)))
        CFI (cfiCond52) DPL0 load(1, XDATA, add(CFA_XSP16, literal(-2)))
        CFI (cfiCond52) DPH0 load(1, XDATA, add(CFA_XSP16, literal(-1)))
        CFI (cfiCond52) CFA_SP SP+0
        CFI (cfiCond52) CFA_XSP16 add(XSP16, 24)
        CFI Block cfiPicker53 Using cfiCommon1
        CFI (cfiPicker53) NoFunction
        CFI (cfiPicker53) Picker
        LCALL   ?Subroutine8 & 0xFFFF
??CrossCallReturnLabel_8:
        MOV     R2,#0xa
        MOV     R3,#0x0
        RET
        CFI EndBlock cfiCond51
        CFI EndBlock cfiCond52
        CFI EndBlock cfiPicker53

        RSEG BANKED_CODE:CODE:NOROOT(0)
?Subroutine8:
        CFI Block cfiCond54 Using cfiCommon0
        CFI NoFunction
        CFI Conditional ??CrossCallReturnLabel_7
        CFI R6 load(1, XDATA, add(CFA_XSP16, literal(-11)))
        CFI VB load(1, XDATA, add(CFA_XSP16, literal(-10)))
        CFI V0 load(1, XDATA, add(CFA_XSP16, literal(-9)))
        CFI V1 load(1, XDATA, add(CFA_XSP16, literal(-8)))
        CFI V2 load(1, XDATA, add(CFA_XSP16, literal(-7)))
        CFI R7 load(1, XDATA, add(CFA_XSP16, literal(-6)))
        CFI ?RET_LOW load(1, XDATA, add(CFA_XSP16, literal(-5)))
        CFI ?RET_HIGH load(1, XDATA, add(CFA_XSP16, literal(-4)))
        CFI ?BRET_EXT load(1, XDATA, add(CFA_XSP16, literal(-3)))
        CFI DPL0 load(1, XDATA, add(CFA_XSP16, literal(-2)))
        CFI DPH0 load(1, XDATA, add(CFA_XSP16, literal(-1)))
        CFI CFA_SP SP+0
        CFI CFA_XSP16 add(XSP16, 24)
        CFI Block cfiCond55 Using cfiCommon0
        CFI (cfiCond55) NoFunction
        CFI (cfiCond55) Conditional ??CrossCallReturnLabel_8, ??CrossCallReturnLabel_2
        CFI (cfiCond55) R6 load(1, XDATA, add(CFA_XSP16, literal(-11)))
        CFI (cfiCond55) VB load(1, XDATA, add(CFA_XSP16, literal(-10)))
        CFI (cfiCond55) V0 load(1, XDATA, add(CFA_XSP16, literal(-9)))
        CFI (cfiCond55) V1 load(1, XDATA, add(CFA_XSP16, literal(-8)))
        CFI (cfiCond55) V2 load(1, XDATA, add(CFA_XSP16, literal(-7)))
        CFI (cfiCond55) R7 load(1, XDATA, add(CFA_XSP16, literal(-6)))
        CFI (cfiCond55) ?RET_LOW load(1, XDATA, add(CFA_XSP16, literal(-5)))
        CFI (cfiCond55) ?RET_HIGH load(1, XDATA, add(CFA_XSP16, literal(-4)))
        CFI (cfiCond55) ?BRET_EXT load(1, XDATA, add(CFA_XSP16, literal(-3)))
        CFI (cfiCond55) DPL0 load(1, XDATA, add(CFA_XSP16, literal(-2)))
        CFI (cfiCond55) DPH0 load(1, XDATA, add(CFA_XSP16, literal(-1)))
        CFI (cfiCond55) CFA_SP SP+0
        CFI (cfiCond55) CFA_XSP16 add(XSP16, 24)
        CFI Block cfiCond56 Using cfiCommon0
        CFI (cfiCond56) NoFunction
        CFI (cfiCond56) Conditional ??CrossCallReturnLabel_8, ??CrossCallReturnLabel_3
        CFI (cfiCond56) R6 load(1, XDATA, add(CFA_XSP16, literal(-11)))
        CFI (cfiCond56) VB load(1, XDATA, add(CFA_XSP16, literal(-10)))
        CFI (cfiCond56) V0 load(1, XDATA, add(CFA_XSP16, literal(-9)))
        CFI (cfiCond56) V1 load(1, XDATA, add(CFA_XSP16, literal(-8)))
        CFI (cfiCond56) V2 load(1, XDATA, add(CFA_XSP16, literal(-7)))
        CFI (cfiCond56) R7 load(1, XDATA, add(CFA_XSP16, literal(-6)))
        CFI (cfiCond56) ?RET_LOW load(1, XDATA, add(CFA_XSP16, literal(-5)))
        CFI (cfiCond56) ?RET_HIGH load(1, XDATA, add(CFA_XSP16, literal(-4)))
        CFI (cfiCond56) ?BRET_EXT load(1, XDATA, add(CFA_XSP16, literal(-3)))
        CFI (cfiCond56) DPL0 load(1, XDATA, add(CFA_XSP16, literal(-2)))
        CFI (cfiCond56) DPH0 load(1, XDATA, add(CFA_XSP16, literal(-1)))
        CFI (cfiCond56) CFA_SP SP+0
        CFI (cfiCond56) CFA_XSP16 add(XSP16, 24)
        CFI Block cfiPicker57 Using cfiCommon1
        CFI (cfiPicker57) NoFunction
        CFI (cfiPicker57) Picker
        MOVX    @DPTR,A
        MOV     DPTR,#GasData
        MOVX    A,@DPTR
        MOV     R0,A
        INC     DPTR
        MOVX    A,@DPTR
        MOV     R1,A
        RET
        CFI EndBlock cfiCond54
        CFI EndBlock cfiCond55
        CFI EndBlock cfiCond56
        CFI EndBlock cfiPicker57

        RSEG BANK_RELAYS:CODE:REORDER:NOROOT(0)
??InitUart?relay:
        LCALL   ?BDISPATCH
        DATA
        DC24    InitUart

        RSEG BANK_RELAYS:CODE:REORDER:NOROOT(0)
??UartSendString?relay:
        LCALL   ?BDISPATCH
        DATA
        DC24    UartSendString

        RSEG BANK_RELAYS:CODE:REORDER:NOROOT(0)
??ReadGasData?relay:
        LCALL   ?BDISPATCH
        DATA
        DC24    ReadGasData

        RSEG BANK_RELAYS:CODE:REORDER:NOROOT(0)
??SampleApp_Init?relay:
        LCALL   ?BDISPATCH
        DATA
        DC24    SampleApp_Init

        RSEG BANK_RELAYS:CODE:REORDER:NOROOT(0)
??SampleApp_ProcessEvent?relay:
        LCALL   ?BDISPATCH
        DATA
        DC24    SampleApp_ProcessEvent

        RSEG BANK_RELAYS:CODE:REORDER:NOROOT(0)
??SampleApp_HandleKeys?relay:
        LCALL   ?BDISPATCH
        DATA
        DC24    SampleApp_HandleKeys

        RSEG BANK_RELAYS:CODE:REORDER:NOROOT(0)
??SampleApp_MessageMSGCB?relay:
        LCALL   ?BDISPATCH
        DATA
        DC24    SampleApp_MessageMSGCB

        RSEG BANK_RELAYS:CODE:REORDER:NOROOT(0)
??SampleApp_SendPeriodicMessage?relay:
        LCALL   ?BDISPATCH
        DATA
        DC24    SampleApp_SendPeriodicMessage

        RSEG BANK_RELAYS:CODE:REORDER:NOROOT(0)
??SampleApp_SendFlashMessage?relay:
        LCALL   ?BDISPATCH
        DATA
        DC24    SampleApp_SendFlashMessage

        RSEG BANK_RELAYS:CODE:REORDER:NOROOT(0)
??SampleApp_Send_P2P_Message?relay:
        LCALL   ?BDISPATCH
        DATA
        DC24    SampleApp_Send_P2P_Message

        RSEG XDATA_ROM_C:CONST:REORDER:NOROOT(0)
        DATA8
`?<Constant "Group 1">`:
        DB "Group 1"

        RSEG XDATA_ROM_C:CONST:REORDER:NOROOT(0)
        DATA8
`?<Constant "SampleApp">`:
        DB "SampleApp"

        RSEG XDATA_ROM_C:CONST:REORDER:NOROOT(0)
        DATA8
`?<Constant "T&H:">`:
        DB "T&H:"

        RSEG XDATA_ROM_C:CONST:REORDER:NOROOT(0)
        DATA16
`?<Constant "\\n">`:
        DB "\012"

        RSEG XDATA_ROM_C:CONST:REORDER:NOROOT(0)
        DATA8
`?<Constant "Abnormal temperature">`:
        DB "Abnormal temperature"

        RSEG XDATA_ROM_C:CONST:REORDER:NOROOT(0)
        DATA8
`?<Constant "MQ2:">`:
        DB "MQ2:"

        RSEG XDATA_ROM_C:CONST:REORDER:NOROOT(0)
        DATA8
`?<Constant "Gas anomaly">`:
        DB "Gas anomaly"

        RSEG XDATA_ROM_C:CONST:REORDER:NOROOT(0)
        DATA8
`?<Constant "  ">`:
        DB "  "

        END
//  794 /*********************************************************************
//  795 *********************************************************************/
// 
// 1 653 bytes in segment BANKED_CODE
//    60 bytes in segment BANK_RELAYS
//    19 bytes in segment SFR_AN
//    84 bytes in segment XDATA_ROM_C
//    72 bytes in segment XDATA_Z
// 
// 1 713 bytes of CODE  memory
//    84 bytes of CONST memory
//     0 bytes of DATA  memory (+ 19 bytes shared)
//    72 bytes of XDATA memory
//
//Errors: none
//Warnings: 4
